
C21_FlappyBird.elf:     file format elf32-littlearm

Sections:
Idx Name          Size      VMA       LMA       File off  Algn
  0 .isr_vector   0000010c  08000000  08000000  00010000  2**0
                  CONTENTS, ALLOC, LOAD, READONLY, DATA
  1 .text         00002684  0800010c  0800010c  0001010c  2**2
                  CONTENTS, ALLOC, LOAD, READONLY, CODE
  2 .rodata       0000a858  08002790  08002790  00012790  2**1
                  CONTENTS, ALLOC, LOAD, READONLY, DATA
  3 .ARM.extab    00000000  0800cfe8  0800cfe8  00020074  2**0
                  CONTENTS
  4 .ARM          00000000  0800cfe8  0800cfe8  00020074  2**0
                  CONTENTS
  5 .preinit_array 00000000  0800cfe8  0800cfe8  00020074  2**0
                  CONTENTS, ALLOC, LOAD, DATA
  6 .init_array   00000004  0800cfe8  0800cfe8  0001cfe8  2**2
                  CONTENTS, ALLOC, LOAD, DATA
  7 .fini_array   00000004  0800cfec  0800cfec  0001cfec  2**2
                  CONTENTS, ALLOC, LOAD, DATA
  8 .data         00000074  20000000  0800cff0  00020000  2**2
                  CONTENTS, ALLOC, LOAD, DATA
  9 .bss          00000494  20000074  0800d064  00020074  2**2
                  ALLOC
 10 ._user_heap_stack 00000600  20000508  0800d064  00020508  2**0
                  ALLOC
 11 .ARM.attributes 00000029  00000000  00000000  00020074  2**0
                  CONTENTS, READONLY
 12 .debug_info   0000f399  00000000  00000000  0002009d  2**0
                  CONTENTS, READONLY, DEBUGGING
 13 .debug_abbrev 000024cb  00000000  00000000  0002f436  2**0
                  CONTENTS, READONLY, DEBUGGING
 14 .debug_loc    00007066  00000000  00000000  00031901  2**0
                  CONTENTS, READONLY, DEBUGGING
 15 .debug_aranges 000009e8  00000000  00000000  00038968  2**3
                  CONTENTS, READONLY, DEBUGGING
 16 .debug_ranges 00000f90  00000000  00000000  00039350  2**3
                  CONTENTS, READONLY, DEBUGGING
 17 .debug_macro  00013608  00000000  00000000  0003a2e0  2**0
                  CONTENTS, READONLY, DEBUGGING
 18 .debug_line   00008941  00000000  00000000  0004d8e8  2**0
                  CONTENTS, READONLY, DEBUGGING
 19 .debug_str    00070ff4  00000000  00000000  00056229  2**0
                  CONTENTS, READONLY, DEBUGGING
 20 .comment      0000007b  00000000  00000000  000c721d  2**0
                  CONTENTS, READONLY
 21 .debug_frame  0000202c  00000000  00000000  000c7298  2**2
                  CONTENTS, READONLY, DEBUGGING

Disassembly of section .text:

0800010c <__do_global_dtors_aux>:
 800010c:	b510      	push	{r4, lr}
 800010e:	4c05      	ldr	r4, [pc, #20]	; (8000124 <__do_global_dtors_aux+0x18>)
 8000110:	7823      	ldrb	r3, [r4, #0]
 8000112:	b933      	cbnz	r3, 8000122 <__do_global_dtors_aux+0x16>
 8000114:	4b04      	ldr	r3, [pc, #16]	; (8000128 <__do_global_dtors_aux+0x1c>)
 8000116:	b113      	cbz	r3, 800011e <__do_global_dtors_aux+0x12>
 8000118:	4804      	ldr	r0, [pc, #16]	; (800012c <__do_global_dtors_aux+0x20>)
 800011a:	f3af 8000 	nop.w
 800011e:	2301      	movs	r3, #1
 8000120:	7023      	strb	r3, [r4, #0]
 8000122:	bd10      	pop	{r4, pc}
 8000124:	20000074 	.word	0x20000074
 8000128:	00000000 	.word	0x00000000
 800012c:	08002778 	.word	0x08002778

08000130 <frame_dummy>:
 8000130:	b508      	push	{r3, lr}
 8000132:	4b03      	ldr	r3, [pc, #12]	; (8000140 <frame_dummy+0x10>)
 8000134:	b11b      	cbz	r3, 800013e <frame_dummy+0xe>
 8000136:	4903      	ldr	r1, [pc, #12]	; (8000144 <frame_dummy+0x14>)
 8000138:	4803      	ldr	r0, [pc, #12]	; (8000148 <frame_dummy+0x18>)
 800013a:	f3af 8000 	nop.w
 800013e:	bd08      	pop	{r3, pc}
 8000140:	00000000 	.word	0x00000000
 8000144:	20000078 	.word	0x20000078
 8000148:	08002778 	.word	0x08002778

0800014c <print_score>:
}
//
int col_array[3];
int col_pos[3];

void print_score(uint8_t score){
 800014c:	b507      	push	{r0, r1, r2, lr}
	switch(score){
 800014e:	2809      	cmp	r0, #9
 8000150:	d80e      	bhi.n	8000170 <print_score+0x24>
 8000152:	e8df f000 	tbb	[pc, r0]
 8000156:	1005      	.short	0x1005
 8000158:	18161412 	.word	0x18161412
 800015c:	201e1c1a 	.word	0x201e1c1a
	case 0:
		ST7735_DrawImage(10, 58, 8, 8, &zero);
 8000160:	4b0e      	ldr	r3, [pc, #56]	; (800019c <print_score+0x50>)
	break;
	case 8:
		ST7735_DrawImage(10, 58, 8, 8, &eight);
	break;
	case 9:
		ST7735_DrawImage(10, 58, 8, 8, &nine);
 8000162:	9300      	str	r3, [sp, #0]
 8000164:	2308      	movs	r3, #8
 8000166:	213a      	movs	r1, #58	; 0x3a
 8000168:	461a      	mov	r2, r3
 800016a:	200a      	movs	r0, #10
 800016c:	f000 fd87 	bl	8000c7e <ST7735_DrawImage>
	break;
	}
}
 8000170:	b003      	add	sp, #12
 8000172:	f85d fb04 	ldr.w	pc, [sp], #4
		ST7735_DrawImage(10, 58, 8, 8, &one);
 8000176:	4b0a      	ldr	r3, [pc, #40]	; (80001a0 <print_score+0x54>)
 8000178:	e7f3      	b.n	8000162 <print_score+0x16>
		ST7735_DrawImage(10, 58, 8, 8, &two);
 800017a:	4b0a      	ldr	r3, [pc, #40]	; (80001a4 <print_score+0x58>)
 800017c:	e7f1      	b.n	8000162 <print_score+0x16>
		ST7735_DrawImage(10, 58, 8, 8, &three);
 800017e:	4b0a      	ldr	r3, [pc, #40]	; (80001a8 <print_score+0x5c>)
 8000180:	e7ef      	b.n	8000162 <print_score+0x16>
		ST7735_DrawImage(10, 58, 8, 8, &four);
 8000182:	4b0a      	ldr	r3, [pc, #40]	; (80001ac <print_score+0x60>)
 8000184:	e7ed      	b.n	8000162 <print_score+0x16>
		ST7735_DrawImage(10, 58, 8, 8, &five);
 8000186:	4b0a      	ldr	r3, [pc, #40]	; (80001b0 <print_score+0x64>)
 8000188:	e7eb      	b.n	8000162 <print_score+0x16>
		ST7735_DrawImage(10, 58, 8, 8, &six);
 800018a:	4b0a      	ldr	r3, [pc, #40]	; (80001b4 <print_score+0x68>)
 800018c:	e7e9      	b.n	8000162 <print_score+0x16>
		ST7735_DrawImage(10,58, 8, 8, &seven);
 800018e:	4b0a      	ldr	r3, [pc, #40]	; (80001b8 <print_score+0x6c>)
 8000190:	e7e7      	b.n	8000162 <print_score+0x16>
		ST7735_DrawImage(10, 58, 8, 8, &eight);
 8000192:	4b0a      	ldr	r3, [pc, #40]	; (80001bc <print_score+0x70>)
 8000194:	e7e5      	b.n	8000162 <print_score+0x16>
		ST7735_DrawImage(10, 58, 8, 8, &nine);
 8000196:	4b0a      	ldr	r3, [pc, #40]	; (80001c0 <print_score+0x74>)
 8000198:	e7e3      	b.n	8000162 <print_score+0x16>
 800019a:	bf00      	nop
 800019c:	0800cee2 	.word	0x0800cee2
 80001a0:	0800ab62 	.word	0x0800ab62
 80001a4:	0800ce62 	.word	0x0800ce62
 80001a8:	0800cde2 	.word	0x0800cde2
 80001ac:	08002a62 	.word	0x08002a62
 80001b0:	080029e2 	.word	0x080029e2
 80001b4:	0800cd62 	.word	0x0800cd62
 80001b8:	0800cce2 	.word	0x0800cce2
 80001bc:	08002962 	.word	0x08002962
 80001c0:	0800aae2 	.word	0x0800aae2

080001c4 <draw_bird>:

void draw_bird(uint16_t x, uint16_t y, const uint16_t* bird){
 80001c4:	b5f0      	push	{r4, r5, r6, r7, lr}
	uint16_t buffer[15][15];
	if(x<128){
 80001c6:	287f      	cmp	r0, #127	; 0x7f
void draw_bird(uint16_t x, uint16_t y, const uint16_t* bird){
 80001c8:	b0f5      	sub	sp, #468	; 0x1d4
 80001ca:	ac03      	add	r4, sp, #12
	if(x<128){
 80001cc:	d81c      	bhi.n	8000208 <draw_bird+0x44>
 80001ce:	4621      	mov	r1, r4


			}

			if( 6<j || j< 10){
			                            if(buffer[i][j] == 0xFFFF){
 80001d0:	f64f 77ff 	movw	r7, #65535	; 0xffff
 80001d4:	4b11      	ldr	r3, [pc, #68]	; (800021c <draw_bird+0x58>)
 80001d6:	f502 76e1 	add.w	r6, r2, #450	; 0x1c2
 80001da:	eb03 0040 	add.w	r0, r3, r0, lsl #1
		for(int j = 0; j < 15; j++){
 80001de:	2300      	movs	r3, #0
			buffer[i][j] = bird[i*15 + j] ;
 80001e0:	f832 5013 	ldrh.w	r5, [r2, r3, lsl #1]
			                            if(buffer[i][j] == 0xFFFF){
 80001e4:	42bd      	cmp	r5, r7
			buffer[i][j] = bird[i*15 + j] ;
 80001e6:	f821 5013 	strh.w	r5, [r1, r3, lsl #1]
			                                  buffer[i][j] = ground[i][j+x];
 80001ea:	bf04      	itt	eq
 80001ec:	f830 5013 	ldrheq.w	r5, [r0, r3, lsl #1]
 80001f0:	f821 5013 	strheq.w	r5, [r1, r3, lsl #1]
		for(int j = 0; j < 15; j++){
 80001f4:	3301      	adds	r3, #1
 80001f6:	2b0f      	cmp	r3, #15
 80001f8:	d1f2      	bne.n	80001e0 <draw_bird+0x1c>
 80001fa:	321e      	adds	r2, #30
	for(int i = 0; i < 15; i++){
 80001fc:	42b2      	cmp	r2, r6
 80001fe:	f500 7080 	add.w	r0, r0, #256	; 0x100
 8000202:	f101 011e 	add.w	r1, r1, #30
 8000206:	d1ea      	bne.n	80001de <draw_bird+0x1a>
			            			}

			}
	}
	}
	ST7735_DrawImage(i, 0, 15, 15, &buffer);
 8000208:	4b05      	ldr	r3, [pc, #20]	; (8000220 <draw_bird+0x5c>)
 800020a:	2100      	movs	r1, #0
 800020c:	8818      	ldrh	r0, [r3, #0]
 800020e:	230f      	movs	r3, #15
 8000210:	9400      	str	r4, [sp, #0]
 8000212:	461a      	mov	r2, r3
 8000214:	f000 fd33 	bl	8000c7e <ST7735_DrawImage>
}
 8000218:	b075      	add	sp, #468	; 0x1d4
 800021a:	bdf0      	pop	{r4, r5, r6, r7, pc}
 800021c:	08002ae2 	.word	0x08002ae2
 8000220:	20000090 	.word	0x20000090

08000224 <SystemClock_Config>:
/**
  * @brief System Clock Configuration
  * @retval None
  */
void SystemClock_Config(void)
{
 8000224:	b510      	push	{r4, lr}
  RCC_OscInitTypeDef RCC_OscInitStruct = {0};
 8000226:	2414      	movs	r4, #20
{
 8000228:	b090      	sub	sp, #64	; 0x40
  RCC_OscInitTypeDef RCC_OscInitStruct = {0};
 800022a:	4622      	mov	r2, r4
 800022c:	2100      	movs	r1, #0
 800022e:	a808      	add	r0, sp, #32
 8000230:	f002 f9a0 	bl	8002574 <memset>
  RCC_ClkInitTypeDef RCC_ClkInitStruct = {0};
 8000234:	4622      	mov	r2, r4
 8000236:	2100      	movs	r1, #0
 8000238:	a801      	add	r0, sp, #4
 800023a:	f002 f99b 	bl	8002574 <memset>
  */
  RCC_OscInitStruct.OscillatorType = RCC_OSCILLATORTYPE_HSE;
  RCC_OscInitStruct.HSEState = RCC_HSE_ON;
  RCC_OscInitStruct.HSEPredivValue = RCC_HSE_PREDIV_DIV1;
  RCC_OscInitStruct.HSIState = RCC_HSI_ON;
  RCC_OscInitStruct.PLL.PLLState = RCC_PLL_ON;
 800023e:	2402      	movs	r4, #2
  RCC_OscInitStruct.HSEState = RCC_HSE_ON;
 8000240:	2201      	movs	r2, #1
 8000242:	f44f 3380 	mov.w	r3, #65536	; 0x10000
 8000246:	e9cd 2306 	strd	r2, r3, [sp, #24]
  RCC_OscInitStruct.PLL.PLLSource = RCC_PLLSOURCE_HSE;
 800024a:	e9cd 430d 	strd	r4, r3, [sp, #52]	; 0x34
  RCC_OscInitStruct.PLL.PLLMUL = RCC_PLL_MUL9;
 800024e:	f44f 13e0 	mov.w	r3, #1835008	; 0x1c0000
  if (HAL_RCC_OscConfig(&RCC_OscInitStruct) != HAL_OK)
 8000252:	a806      	add	r0, sp, #24
  RCC_OscInitStruct.HSIState = RCC_HSI_ON;
 8000254:	920a      	str	r2, [sp, #40]	; 0x28
  RCC_OscInitStruct.PLL.PLLMUL = RCC_PLL_MUL9;
 8000256:	930f      	str	r3, [sp, #60]	; 0x3c
  if (HAL_RCC_OscConfig(&RCC_OscInitStruct) != HAL_OK)
 8000258:	f001 fa84 	bl	8001764 <HAL_RCC_OscConfig>
  {
    Error_Handler();
  }
  /** Initializes the CPU, AHB and APB buses clocks
  */
  RCC_ClkInitStruct.ClockType = RCC_CLOCKTYPE_HCLK|RCC_CLOCKTYPE_SYSCLK
 800025c:	230f      	movs	r3, #15
                              |RCC_CLOCKTYPE_PCLK1|RCC_CLOCKTYPE_PCLK2;
  RCC_ClkInitStruct.SYSCLKSource = RCC_SYSCLKSOURCE_PLLCLK;
  RCC_ClkInitStruct.AHBCLKDivider = RCC_SYSCLK_DIV1;
  RCC_ClkInitStruct.APB1CLKDivider = RCC_HCLK_DIV2;
 800025e:	f44f 6280 	mov.w	r2, #1024	; 0x400
  RCC_ClkInitStruct.SYSCLKSource = RCC_SYSCLKSOURCE_PLLCLK;
 8000262:	e9cd 3401 	strd	r3, r4, [sp, #4]
  RCC_ClkInitStruct.APB1CLKDivider = RCC_HCLK_DIV2;
 8000266:	2300      	movs	r3, #0
  RCC_ClkInitStruct.APB2CLKDivider = RCC_HCLK_DIV1;

  if (HAL_RCC_ClockConfig(&RCC_ClkInitStruct, FLASH_LATENCY_2) != HAL_OK)
 8000268:	4621      	mov	r1, r4
 800026a:	a801      	add	r0, sp, #4
  RCC_ClkInitStruct.APB1CLKDivider = RCC_HCLK_DIV2;
 800026c:	e9cd 3203 	strd	r3, r2, [sp, #12]
  RCC_ClkInitStruct.APB2CLKDivider = RCC_HCLK_DIV1;
 8000270:	9305      	str	r3, [sp, #20]
  if (HAL_RCC_ClockConfig(&RCC_ClkInitStruct, FLASH_LATENCY_2) != HAL_OK)
 8000272:	f001 fc4f 	bl	8001b14 <HAL_RCC_ClockConfig>
  {
    Error_Handler();
  }
}
 8000276:	b010      	add	sp, #64	; 0x40
 8000278:	bd10      	pop	{r4, pc}
	...

0800027c <main>:
{
 800027c:	e92d 4ff0 	stmdb	sp!, {r4, r5, r6, r7, r8, r9, sl, fp, lr}
static void MX_GPIO_Init(void)
{
  GPIO_InitTypeDef GPIO_InitStruct = {0};

  /* GPIO Ports Clock Enable */
  __HAL_RCC_GPIOC_CLK_ENABLE();
 8000280:	4dcc      	ldr	r5, [pc, #816]	; (80005b4 <main+0x338>)
{
 8000282:	b097      	sub	sp, #92	; 0x5c
  HAL_Init();
 8000284:	f001 f80c 	bl	80012a0 <HAL_Init>
  SystemClock_Config();
 8000288:	f7ff ffcc 	bl	8000224 <SystemClock_Config>
  GPIO_InitTypeDef GPIO_InitStruct = {0};
 800028c:	2210      	movs	r2, #16
 800028e:	2100      	movs	r1, #0
 8000290:	a80f      	add	r0, sp, #60	; 0x3c
 8000292:	f002 f96f 	bl	8002574 <memset>
  __HAL_RCC_GPIOC_CLK_ENABLE();
 8000296:	69ab      	ldr	r3, [r5, #24]
  __HAL_RCC_GPIOD_CLK_ENABLE();
  __HAL_RCC_GPIOA_CLK_ENABLE();
  __HAL_RCC_GPIOB_CLK_ENABLE();

  /*Configure GPIO pin Output Level */
  HAL_GPIO_WritePin(GPIOB, GPIO_PIN_1|GPIO_PIN_10|SD_CS_Pin, GPIO_PIN_RESET);
 8000298:	2200      	movs	r2, #0
  __HAL_RCC_GPIOC_CLK_ENABLE();
 800029a:	f043 0310 	orr.w	r3, r3, #16
 800029e:	61ab      	str	r3, [r5, #24]
 80002a0:	69ab      	ldr	r3, [r5, #24]
  HAL_GPIO_WritePin(GPIOB, GPIO_PIN_1|GPIO_PIN_10|SD_CS_Pin, GPIO_PIN_RESET);
 80002a2:	f240 4182 	movw	r1, #1154	; 0x482
  __HAL_RCC_GPIOC_CLK_ENABLE();
 80002a6:	f003 0310 	and.w	r3, r3, #16
 80002aa:	9305      	str	r3, [sp, #20]
 80002ac:	9b05      	ldr	r3, [sp, #20]
  __HAL_RCC_GPIOD_CLK_ENABLE();
 80002ae:	69ab      	ldr	r3, [r5, #24]
  HAL_GPIO_WritePin(GPIOB, GPIO_PIN_1|GPIO_PIN_10|SD_CS_Pin, GPIO_PIN_RESET);
 80002b0:	48c1      	ldr	r0, [pc, #772]	; (80005b8 <main+0x33c>)
  __HAL_RCC_GPIOD_CLK_ENABLE();
 80002b2:	f043 0320 	orr.w	r3, r3, #32
 80002b6:	61ab      	str	r3, [r5, #24]
 80002b8:	69ab      	ldr	r3, [r5, #24]
  HAL_GPIO_WritePin(GPIOA, GPIO_PIN_8|GPIO_PIN_9|GPIO_PIN_10, GPIO_PIN_RESET);

  /*Configure GPIO pins : PC13 PC14 PC15 */
  GPIO_InitStruct.Pin = GPIO_PIN_13|GPIO_PIN_14|GPIO_PIN_15;
  GPIO_InitStruct.Mode = GPIO_MODE_IT_RISING;
  GPIO_InitStruct.Pull = GPIO_NOPULL;
 80002ba:	2400      	movs	r4, #0
  __HAL_RCC_GPIOD_CLK_ENABLE();
 80002bc:	f003 0320 	and.w	r3, r3, #32
 80002c0:	9306      	str	r3, [sp, #24]
 80002c2:	9b06      	ldr	r3, [sp, #24]
  __HAL_RCC_GPIOA_CLK_ENABLE();
 80002c4:	69ab      	ldr	r3, [r5, #24]
  HAL_GPIO_Init(GPIOC, &GPIO_InitStruct);

  /*Configure GPIO pins : PA0 PA3 */
  GPIO_InitStruct.Pin = GPIO_PIN_0|GPIO_PIN_3;
 80002c6:	2609      	movs	r6, #9
  __HAL_RCC_GPIOA_CLK_ENABLE();
 80002c8:	f043 0304 	orr.w	r3, r3, #4
 80002cc:	61ab      	str	r3, [r5, #24]
 80002ce:	69ab      	ldr	r3, [r5, #24]
  GPIO_InitStruct.Mode = GPIO_MODE_IT_RISING;
 80002d0:	4fba      	ldr	r7, [pc, #744]	; (80005bc <main+0x340>)
  __HAL_RCC_GPIOA_CLK_ENABLE();
 80002d2:	f003 0304 	and.w	r3, r3, #4
 80002d6:	9307      	str	r3, [sp, #28]
 80002d8:	9b07      	ldr	r3, [sp, #28]
  __HAL_RCC_GPIOB_CLK_ENABLE();
 80002da:	69ab      	ldr	r3, [r5, #24]

  /*Configure GPIO pins : PB1 PB10 SD_CS_Pin */
  GPIO_InitStruct.Pin = GPIO_PIN_1|GPIO_PIN_10|SD_CS_Pin;
  GPIO_InitStruct.Mode = GPIO_MODE_OUTPUT_PP;
  GPIO_InitStruct.Pull = GPIO_NOPULL;
  GPIO_InitStruct.Speed = GPIO_SPEED_FREQ_LOW;
 80002dc:	f04f 0802 	mov.w	r8, #2
  __HAL_RCC_GPIOB_CLK_ENABLE();
 80002e0:	f043 0308 	orr.w	r3, r3, #8
 80002e4:	61ab      	str	r3, [r5, #24]
 80002e6:	69ab      	ldr	r3, [r5, #24]
  htim1.Init.Prescaler = 719;
 80002e8:	f240 2acf 	movw	sl, #719	; 0x2cf
  __HAL_RCC_GPIOB_CLK_ENABLE();
 80002ec:	f003 0308 	and.w	r3, r3, #8
 80002f0:	9308      	str	r3, [sp, #32]
 80002f2:	9b08      	ldr	r3, [sp, #32]
  HAL_GPIO_WritePin(GPIOB, GPIO_PIN_1|GPIO_PIN_10|SD_CS_Pin, GPIO_PIN_RESET);
 80002f4:	f001 fa1e 	bl	8001734 <HAL_GPIO_WritePin>
  HAL_GPIO_WritePin(GPIOA, GPIO_PIN_8|GPIO_PIN_9|GPIO_PIN_10, GPIO_PIN_RESET);
 80002f8:	2200      	movs	r2, #0
 80002fa:	f44f 61e0 	mov.w	r1, #1792	; 0x700
 80002fe:	48b0      	ldr	r0, [pc, #704]	; (80005c0 <main+0x344>)
 8000300:	f001 fa18 	bl	8001734 <HAL_GPIO_WritePin>
  GPIO_InitStruct.Mode = GPIO_MODE_IT_RISING;
 8000304:	f44f 4360 	mov.w	r3, #57344	; 0xe000
  HAL_GPIO_Init(GPIOC, &GPIO_InitStruct);
 8000308:	a90f      	add	r1, sp, #60	; 0x3c
 800030a:	48ae      	ldr	r0, [pc, #696]	; (80005c4 <main+0x348>)
  GPIO_InitStruct.Mode = GPIO_MODE_IT_RISING;
 800030c:	e9cd 370f 	strd	r3, r7, [sp, #60]	; 0x3c
  GPIO_InitStruct.Pull = GPIO_NOPULL;
 8000310:	9411      	str	r4, [sp, #68]	; 0x44
  HAL_GPIO_Init(GPIOC, &GPIO_InitStruct);
 8000312:	f001 f929 	bl	8001568 <HAL_GPIO_Init>
  GPIO_InitStruct.Mode = GPIO_MODE_IT_RISING;
 8000316:	e9cd 670f 	strd	r6, r7, [sp, #60]	; 0x3c
  GPIO_InitStruct.Pull = GPIO_PULLUP;
 800031a:	2701      	movs	r7, #1
  HAL_GPIO_Init(GPIOA, &GPIO_InitStruct);
 800031c:	a90f      	add	r1, sp, #60	; 0x3c
 800031e:	48a8      	ldr	r0, [pc, #672]	; (80005c0 <main+0x344>)
  GPIO_InitStruct.Pull = GPIO_PULLUP;
 8000320:	9711      	str	r7, [sp, #68]	; 0x44
  HAL_GPIO_Init(GPIOA, &GPIO_InitStruct);
 8000322:	f001 f921 	bl	8001568 <HAL_GPIO_Init>
  GPIO_InitStruct.Pin = GPIO_PIN_1|GPIO_PIN_10|SD_CS_Pin;
 8000326:	f240 4382 	movw	r3, #1154	; 0x482
  HAL_GPIO_Init(GPIOB, &GPIO_InitStruct);
 800032a:	a90f      	add	r1, sp, #60	; 0x3c
 800032c:	48a2      	ldr	r0, [pc, #648]	; (80005b8 <main+0x33c>)
  GPIO_InitStruct.Mode = GPIO_MODE_OUTPUT_PP;
 800032e:	e9cd 370f 	strd	r3, r7, [sp, #60]	; 0x3c
  GPIO_InitStruct.Pull = GPIO_NOPULL;
 8000332:	9411      	str	r4, [sp, #68]	; 0x44
  GPIO_InitStruct.Speed = GPIO_SPEED_FREQ_LOW;
 8000334:	f8cd 8048 	str.w	r8, [sp, #72]	; 0x48
  HAL_GPIO_Init(GPIOB, &GPIO_InitStruct);
 8000338:	f001 f916 	bl	8001568 <HAL_GPIO_Init>

  /*Configure GPIO pins : PA8 PA9 PA10 */
  GPIO_InitStruct.Pin = GPIO_PIN_8|GPIO_PIN_9|GPIO_PIN_10;
 800033c:	f44f 63e0 	mov.w	r3, #1792	; 0x700
  GPIO_InitStruct.Mode = GPIO_MODE_OUTPUT_PP;
  GPIO_InitStruct.Pull = GPIO_NOPULL;
  GPIO_InitStruct.Speed = GPIO_SPEED_FREQ_LOW;
  HAL_GPIO_Init(GPIOA, &GPIO_InitStruct);
 8000340:	a90f      	add	r1, sp, #60	; 0x3c
 8000342:	489f      	ldr	r0, [pc, #636]	; (80005c0 <main+0x344>)
  GPIO_InitStruct.Mode = GPIO_MODE_OUTPUT_PP;
 8000344:	e9cd 370f 	strd	r3, r7, [sp, #60]	; 0x3c
  GPIO_InitStruct.Speed = GPIO_SPEED_FREQ_LOW;
 8000348:	e9cd 4811 	strd	r4, r8, [sp, #68]	; 0x44
  HAL_GPIO_Init(GPIOA, &GPIO_InitStruct);
 800034c:	f001 f90c 	bl	8001568 <HAL_GPIO_Init>

  /* EXTI interrupt init*/
  HAL_NVIC_SetPriority(EXTI0_IRQn, 0, 0);
 8000350:	4622      	mov	r2, r4
 8000352:	4621      	mov	r1, r4
 8000354:	2006      	movs	r0, #6
 8000356:	f000 ffeb 	bl	8001330 <HAL_NVIC_SetPriority>
  HAL_NVIC_EnableIRQ(EXTI0_IRQn);
 800035a:	2006      	movs	r0, #6
 800035c:	f001 f81c 	bl	8001398 <HAL_NVIC_EnableIRQ>

  HAL_NVIC_SetPriority(EXTI3_IRQn, 0, 0);
 8000360:	4622      	mov	r2, r4
 8000362:	4621      	mov	r1, r4
 8000364:	4630      	mov	r0, r6
 8000366:	f000 ffe3 	bl	8001330 <HAL_NVIC_SetPriority>
  HAL_NVIC_EnableIRQ(EXTI3_IRQn);
 800036a:	4630      	mov	r0, r6
 800036c:	f001 f814 	bl	8001398 <HAL_NVIC_EnableIRQ>

  HAL_NVIC_SetPriority(EXTI15_10_IRQn, 0, 0);
 8000370:	4622      	mov	r2, r4
 8000372:	4621      	mov	r1, r4
 8000374:	2028      	movs	r0, #40	; 0x28
 8000376:	f000 ffdb 	bl	8001330 <HAL_NVIC_SetPriority>
  HAL_NVIC_EnableIRQ(EXTI15_10_IRQn);
 800037a:	2028      	movs	r0, #40	; 0x28
 800037c:	f001 f80c 	bl	8001398 <HAL_NVIC_EnableIRQ>
  __HAL_RCC_DMA1_CLK_ENABLE();
 8000380:	696b      	ldr	r3, [r5, #20]
  HAL_NVIC_SetPriority(DMA1_Channel2_IRQn, 0, 0);
 8000382:	4622      	mov	r2, r4
  __HAL_RCC_DMA1_CLK_ENABLE();
 8000384:	433b      	orrs	r3, r7
 8000386:	616b      	str	r3, [r5, #20]
 8000388:	696b      	ldr	r3, [r5, #20]
  HAL_NVIC_SetPriority(DMA1_Channel2_IRQn, 0, 0);
 800038a:	4621      	mov	r1, r4
  __HAL_RCC_DMA1_CLK_ENABLE();
 800038c:	403b      	ands	r3, r7
  hspi1.Init.Mode = SPI_MODE_MASTER;
 800038e:	f44f 7782 	mov.w	r7, #260	; 0x104
  __HAL_RCC_DMA1_CLK_ENABLE();
 8000392:	9304      	str	r3, [sp, #16]
  HAL_NVIC_SetPriority(DMA1_Channel2_IRQn, 0, 0);
 8000394:	200c      	movs	r0, #12
  __HAL_RCC_DMA1_CLK_ENABLE();
 8000396:	9b04      	ldr	r3, [sp, #16]
  HAL_NVIC_SetPriority(DMA1_Channel2_IRQn, 0, 0);
 8000398:	f000 ffca 	bl	8001330 <HAL_NVIC_SetPriority>
  HAL_NVIC_EnableIRQ(DMA1_Channel2_IRQn);
 800039c:	200c      	movs	r0, #12
 800039e:	f000 fffb 	bl	8001398 <HAL_NVIC_EnableIRQ>
  HAL_NVIC_SetPriority(DMA1_Channel3_IRQn, 0, 0);
 80003a2:	4622      	mov	r2, r4
 80003a4:	4621      	mov	r1, r4
 80003a6:	200d      	movs	r0, #13
 80003a8:	f000 ffc2 	bl	8001330 <HAL_NVIC_SetPriority>
  HAL_NVIC_EnableIRQ(DMA1_Channel3_IRQn);
 80003ac:	200d      	movs	r0, #13
 80003ae:	f000 fff3 	bl	8001398 <HAL_NVIC_EnableIRQ>
  HAL_NVIC_SetPriority(DMA1_Channel5_IRQn, 0, 0);
 80003b2:	4622      	mov	r2, r4
 80003b4:	4621      	mov	r1, r4
 80003b6:	200f      	movs	r0, #15
 80003b8:	f000 ffba 	bl	8001330 <HAL_NVIC_SetPriority>
  HAL_NVIC_EnableIRQ(DMA1_Channel5_IRQn);
 80003bc:	200f      	movs	r0, #15
 80003be:	f000 ffeb 	bl	8001398 <HAL_NVIC_EnableIRQ>
  hspi1.Instance = SPI1;
 80003c2:	4881      	ldr	r0, [pc, #516]	; (80005c8 <main+0x34c>)
  hspi1.Init.Mode = SPI_MODE_MASTER;
 80003c4:	4b81      	ldr	r3, [pc, #516]	; (80005cc <main+0x350>)
  hspi1.Init.BaudRatePrescaler = SPI_BAUDRATEPRESCALER_4;
 80003c6:	f44f 7600 	mov.w	r6, #512	; 0x200
  hspi1.Init.Mode = SPI_MODE_MASTER;
 80003ca:	e9c0 3700 	strd	r3, r7, [r0]
  hspi1.Init.CRCPolynomial = 10;
 80003ce:	250a      	movs	r5, #10
  hspi1.Init.BaudRatePrescaler = SPI_BAUDRATEPRESCALER_4;
 80003d0:	2308      	movs	r3, #8
  hspi1.Init.DataSize = SPI_DATASIZE_8BIT;
 80003d2:	e9c0 4402 	strd	r4, r4, [r0, #8]
  hspi1.Init.BaudRatePrescaler = SPI_BAUDRATEPRESCALER_4;
 80003d6:	e9c0 6306 	strd	r6, r3, [r0, #24]
  hspi1.Init.CLKPhase = SPI_PHASE_1EDGE;
 80003da:	e9c0 4404 	strd	r4, r4, [r0, #16]
  hspi1.Init.TIMode = SPI_TIMODE_DISABLE;
 80003de:	e9c0 4408 	strd	r4, r4, [r0, #32]
  hspi1.Init.CRCCalculation = SPI_CRCCALCULATION_DISABLE;
 80003e2:	6284      	str	r4, [r0, #40]	; 0x28
  hspi1.Init.CRCPolynomial = 10;
 80003e4:	62c5      	str	r5, [r0, #44]	; 0x2c
  if (HAL_SPI_Init(&hspi1) != HAL_OK)
 80003e6:	f001 fc7a 	bl	8001cde <HAL_SPI_Init>
  hspi2.Instance = SPI2;
 80003ea:	4879      	ldr	r0, [pc, #484]	; (80005d0 <main+0x354>)
 80003ec:	4b79      	ldr	r3, [pc, #484]	; (80005d4 <main+0x358>)
  hspi2.Init.BaudRatePrescaler = SPI_BAUDRATEPRESCALER_2;
 80003ee:	e9c0 6406 	strd	r6, r4, [r0, #24]
  hspi2.Init.Mode = SPI_MODE_MASTER;
 80003f2:	e9c0 3700 	strd	r3, r7, [r0]
  hspi2.Init.CRCPolynomial = 10;
 80003f6:	e9c0 450a 	strd	r4, r5, [r0, #40]	; 0x28
  hspi2.Init.DataSize = SPI_DATASIZE_8BIT;
 80003fa:	e9c0 4402 	strd	r4, r4, [r0, #8]
  hspi2.Init.CLKPhase = SPI_PHASE_1EDGE;
 80003fe:	e9c0 4404 	strd	r4, r4, [r0, #16]
  hspi2.Init.TIMode = SPI_TIMODE_DISABLE;
 8000402:	e9c0 4408 	strd	r4, r4, [r0, #32]
  if (HAL_SPI_Init(&hspi2) != HAL_OK)
 8000406:	f001 fc6a 	bl	8001cde <HAL_SPI_Init>
  TIM_ClockConfigTypeDef sClockSourceConfig = {0};
 800040a:	4621      	mov	r1, r4
 800040c:	2210      	movs	r2, #16
 800040e:	a80b      	add	r0, sp, #44	; 0x2c
 8000410:	f002 f8b0 	bl	8002574 <memset>
  TIM_OC_InitTypeDef sConfigOC = {0};
 8000414:	221c      	movs	r2, #28
 8000416:	4621      	mov	r1, r4
 8000418:	a80f      	add	r0, sp, #60	; 0x3c
  htim2.Init.Prescaler = 71;
 800041a:	2747      	movs	r7, #71	; 0x47
  TIM_MasterConfigTypeDef sMasterConfig = {0};
 800041c:	e9cd 4409 	strd	r4, r4, [sp, #36]	; 0x24
  TIM_OC_InitTypeDef sConfigOC = {0};
 8000420:	f002 f8a8 	bl	8002574 <memset>
  htim2.Init.Prescaler = 71;
 8000424:	f04f 4380 	mov.w	r3, #1073741824	; 0x40000000
  htim2.Instance = TIM2;
 8000428:	4d6b      	ldr	r5, [pc, #428]	; (80005d8 <main+0x35c>)
  sClockSourceConfig.ClockSource = TIM_CLOCKSOURCE_INTERNAL;
 800042a:	f44f 5880 	mov.w	r8, #4096	; 0x1000
  htim2.Init.Prescaler = 71;
 800042e:	e9c5 3700 	strd	r3, r7, [r5]
  htim2.Init.Period = 1632;
 8000432:	f44f 63cc 	mov.w	r3, #1632	; 0x660
  if (HAL_TIM_Base_Init(&htim2) != HAL_OK)
 8000436:	4628      	mov	r0, r5
  htim2.Init.ClockDivision = TIM_CLOCKDIVISION_DIV1;
 8000438:	e9c5 3403 	strd	r3, r4, [r5, #12]
  htim2.Init.CounterMode = TIM_COUNTERMODE_UP;
 800043c:	60ac      	str	r4, [r5, #8]
  htim2.Init.AutoReloadPreload = TIM_AUTORELOAD_PRELOAD_DISABLE;
 800043e:	61ac      	str	r4, [r5, #24]
  if (HAL_TIM_Base_Init(&htim2) != HAL_OK)
 8000440:	f001 feaa 	bl	8002198 <HAL_TIM_Base_Init>
  if (HAL_TIM_ConfigClockSource(&htim2, &sClockSourceConfig) != HAL_OK)
 8000444:	a90b      	add	r1, sp, #44	; 0x2c
 8000446:	4628      	mov	r0, r5
  sClockSourceConfig.ClockSource = TIM_CLOCKSOURCE_INTERNAL;
 8000448:	f8cd 802c 	str.w	r8, [sp, #44]	; 0x2c
  if (HAL_TIM_ConfigClockSource(&htim2, &sClockSourceConfig) != HAL_OK)
 800044c:	f001 ff70 	bl	8002330 <HAL_TIM_ConfigClockSource>
  if (HAL_TIM_PWM_Init(&htim2) != HAL_OK)
 8000450:	4628      	mov	r0, r5
 8000452:	f001 febb 	bl	80021cc <HAL_TIM_PWM_Init>
  if (HAL_TIMEx_MasterConfigSynchronization(&htim2, &sMasterConfig) != HAL_OK)
 8000456:	a909      	add	r1, sp, #36	; 0x24
 8000458:	4628      	mov	r0, r5
  sMasterConfig.MasterSlaveMode = TIM_MASTERSLAVEMODE_DISABLE;
 800045a:	e9cd 4409 	strd	r4, r4, [sp, #36]	; 0x24
  if (HAL_TIMEx_MasterConfigSynchronization(&htim2, &sMasterConfig) != HAL_OK)
 800045e:	f002 f827 	bl	80024b0 <HAL_TIMEx_MasterConfigSynchronization>
  sConfigOC.OCMode = TIM_OCMODE_PWM1;
 8000462:	2360      	movs	r3, #96	; 0x60
  htim1.Init.Period = 12500;
 8000464:	f243 09d4 	movw	r9, #12500	; 0x30d4
  if (HAL_TIM_PWM_ConfigChannel(&htim2, &sConfigOC, TIM_CHANNEL_4) != HAL_OK)
 8000468:	220c      	movs	r2, #12
 800046a:	a90f      	add	r1, sp, #60	; 0x3c
 800046c:	4628      	mov	r0, r5
  sConfigOC.Pulse = 0;
 800046e:	e9cd 340f 	strd	r3, r4, [sp, #60]	; 0x3c
  sConfigOC.OCPolarity = TIM_OCPOLARITY_HIGH;
 8000472:	9411      	str	r4, [sp, #68]	; 0x44
  sConfigOC.OCFastMode = TIM_OCFAST_DISABLE;
 8000474:	9413      	str	r4, [sp, #76]	; 0x4c
  if (HAL_TIM_PWM_ConfigChannel(&htim2, &sConfigOC, TIM_CHANNEL_4) != HAL_OK)
 8000476:	f001 feef 	bl	8002258 <HAL_TIM_PWM_ConfigChannel>
  HAL_TIM_MspPostInit(&htim2);
 800047a:	4628      	mov	r0, r5
  htim1.Instance = TIM1;
 800047c:	4e57      	ldr	r6, [pc, #348]	; (80005dc <main+0x360>)
  HAL_TIM_MspPostInit(&htim2);
 800047e:	f000 fd7f 	bl	8000f80 <HAL_TIM_MspPostInit>
  TIM_ClockConfigTypeDef sClockSourceConfig = {0};
 8000482:	2210      	movs	r2, #16
 8000484:	4621      	mov	r1, r4
 8000486:	a80f      	add	r0, sp, #60	; 0x3c
 8000488:	f002 f874 	bl	8002574 <memset>
  htim1.Init.Prescaler = 719;
 800048c:	4b54      	ldr	r3, [pc, #336]	; (80005e0 <main+0x364>)
  if (HAL_TIM_Base_Init(&htim1) != HAL_OK)
 800048e:	4630      	mov	r0, r6
  htim1.Init.Prescaler = 719;
 8000490:	e9c6 3a00 	strd	r3, sl, [r6]
  htim1.Init.ClockDivision = TIM_CLOCKDIVISION_DIV1;
 8000494:	e9c6 9403 	strd	r9, r4, [r6, #12]
  htim1.Init.CounterMode = TIM_COUNTERMODE_UP;
 8000498:	60b4      	str	r4, [r6, #8]
  htim1.Init.AutoReloadPreload = TIM_AUTORELOAD_PRELOAD_DISABLE;
 800049a:	e9c6 4405 	strd	r4, r4, [r6, #20]
  TIM_MasterConfigTypeDef sMasterConfig = {0};
 800049e:	e9cd 440b 	strd	r4, r4, [sp, #44]	; 0x2c
  if (HAL_TIM_Base_Init(&htim1) != HAL_OK)
 80004a2:	f001 fe79 	bl	8002198 <HAL_TIM_Base_Init>
  if (HAL_TIM_ConfigClockSource(&htim1, &sClockSourceConfig) != HAL_OK)
 80004a6:	a90f      	add	r1, sp, #60	; 0x3c
 80004a8:	4630      	mov	r0, r6
  sClockSourceConfig.ClockSource = TIM_CLOCKSOURCE_INTERNAL;
 80004aa:	f8cd 803c 	str.w	r8, [sp, #60]	; 0x3c
  if (HAL_TIM_ConfigClockSource(&htim1, &sClockSourceConfig) != HAL_OK)
 80004ae:	f001 ff3f 	bl	8002330 <HAL_TIM_ConfigClockSource>
  if (HAL_TIMEx_MasterConfigSynchronization(&htim1, &sMasterConfig) != HAL_OK)
 80004b2:	a90b      	add	r1, sp, #44	; 0x2c
 80004b4:	4630      	mov	r0, r6
  sMasterConfig.MasterSlaveMode = TIM_MASTERSLAVEMODE_DISABLE;
 80004b6:	e9cd 440b 	strd	r4, r4, [sp, #44]	; 0x2c
  if (HAL_TIMEx_MasterConfigSynchronization(&htim1, &sMasterConfig) != HAL_OK)
 80004ba:	f001 fff9 	bl	80024b0 <HAL_TIMEx_MasterConfigSynchronization>
  TIM_ClockConfigTypeDef sClockSourceConfig = {0};
 80004be:	2210      	movs	r2, #16
 80004c0:	4621      	mov	r1, r4
 80004c2:	a80f      	add	r0, sp, #60	; 0x3c
 80004c4:	f002 f856 	bl	8002574 <memset>
  htim4.Instance = TIM4;
 80004c8:	4e46      	ldr	r6, [pc, #280]	; (80005e4 <main+0x368>)
 80004ca:	4b47      	ldr	r3, [pc, #284]	; (80005e8 <main+0x36c>)
  if (HAL_TIM_Base_Init(&htim4) != HAL_OK)
 80004cc:	4630      	mov	r0, r6
  htim4.Init.Prescaler = 71;
 80004ce:	e9c6 3700 	strd	r3, r7, [r6]
  htim4.Init.Period = 2000;
 80004d2:	f44f 63fa 	mov.w	r3, #2000	; 0x7d0
  htim4.Init.CounterMode = TIM_COUNTERMODE_UP;
 80004d6:	60b4      	str	r4, [r6, #8]
  htim4.Init.ClockDivision = TIM_CLOCKDIVISION_DIV1;
 80004d8:	e9c6 3403 	strd	r3, r4, [r6, #12]
  htim4.Init.AutoReloadPreload = TIM_AUTORELOAD_PRELOAD_DISABLE;
 80004dc:	61b4      	str	r4, [r6, #24]
  TIM_MasterConfigTypeDef sMasterConfig = {0};
 80004de:	e9cd 440b 	strd	r4, r4, [sp, #44]	; 0x2c
  if (HAL_TIM_Base_Init(&htim4) != HAL_OK)
 80004e2:	f001 fe59 	bl	8002198 <HAL_TIM_Base_Init>
  if (HAL_TIM_ConfigClockSource(&htim4, &sClockSourceConfig) != HAL_OK)
 80004e6:	a90f      	add	r1, sp, #60	; 0x3c
 80004e8:	4630      	mov	r0, r6
  sClockSourceConfig.ClockSource = TIM_CLOCKSOURCE_INTERNAL;
 80004ea:	f8cd 803c 	str.w	r8, [sp, #60]	; 0x3c
  if (HAL_TIM_ConfigClockSource(&htim4, &sClockSourceConfig) != HAL_OK)
 80004ee:	f001 ff1f 	bl	8002330 <HAL_TIM_ConfigClockSource>
  if (HAL_TIMEx_MasterConfigSynchronization(&htim4, &sMasterConfig) != HAL_OK)
 80004f2:	a90b      	add	r1, sp, #44	; 0x2c
 80004f4:	4630      	mov	r0, r6
  sMasterConfig.MasterSlaveMode = TIM_MASTERSLAVEMODE_DISABLE;
 80004f6:	e9cd 440b 	strd	r4, r4, [sp, #44]	; 0x2c
  htim3.Instance = TIM3;
 80004fa:	4e3c      	ldr	r6, [pc, #240]	; (80005ec <main+0x370>)
  if (HAL_TIMEx_MasterConfigSynchronization(&htim4, &sMasterConfig) != HAL_OK)
 80004fc:	f001 ffd8 	bl	80024b0 <HAL_TIMEx_MasterConfigSynchronization>
  TIM_ClockConfigTypeDef sClockSourceConfig = {0};
 8000500:	2210      	movs	r2, #16
 8000502:	4621      	mov	r1, r4
 8000504:	a80f      	add	r0, sp, #60	; 0x3c
 8000506:	f002 f835 	bl	8002574 <memset>
  htim3.Instance = TIM3;
 800050a:	4b39      	ldr	r3, [pc, #228]	; (80005f0 <main+0x374>)
  if (HAL_TIM_Base_Init(&htim3) != HAL_OK)
 800050c:	4630      	mov	r0, r6
  htim3.Init.Prescaler = 719;
 800050e:	e9c6 3a00 	strd	r3, sl, [r6]
  htim3.Init.Period = 12500;
 8000512:	e9c6 4902 	strd	r4, r9, [r6, #8]
  htim3.Init.ClockDivision = TIM_CLOCKDIVISION_DIV1;
 8000516:	6134      	str	r4, [r6, #16]
  htim3.Init.AutoReloadPreload = TIM_AUTORELOAD_PRELOAD_DISABLE;
 8000518:	61b4      	str	r4, [r6, #24]
  TIM_MasterConfigTypeDef sMasterConfig = {0};
 800051a:	e9cd 440b 	strd	r4, r4, [sp, #44]	; 0x2c
  if (HAL_TIM_Base_Init(&htim3) != HAL_OK)
 800051e:	f001 fe3b 	bl	8002198 <HAL_TIM_Base_Init>
  if (HAL_TIM_ConfigClockSource(&htim3, &sClockSourceConfig) != HAL_OK)
 8000522:	a90f      	add	r1, sp, #60	; 0x3c
 8000524:	4630      	mov	r0, r6
  sClockSourceConfig.ClockSource = TIM_CLOCKSOURCE_INTERNAL;
 8000526:	f8cd 803c 	str.w	r8, [sp, #60]	; 0x3c
  if (HAL_TIM_ConfigClockSource(&htim3, &sClockSourceConfig) != HAL_OK)
 800052a:	f001 ff01 	bl	8002330 <HAL_TIM_ConfigClockSource>
  if (HAL_TIMEx_MasterConfigSynchronization(&htim3, &sMasterConfig) != HAL_OK)
 800052e:	a90b      	add	r1, sp, #44	; 0x2c
 8000530:	4630      	mov	r0, r6
  sMasterConfig.MasterSlaveMode = TIM_MASTERSLAVEMODE_DISABLE;
 8000532:	e9cd 440b 	strd	r4, r4, [sp, #44]	; 0x2c
  if (HAL_TIMEx_MasterConfigSynchronization(&htim3, &sMasterConfig) != HAL_OK)
 8000536:	f001 ffbb 	bl	80024b0 <HAL_TIMEx_MasterConfigSynchronization>
  ST7735_Init();
 800053a:	f000 fb6b 	bl	8000c14 <ST7735_Init>
  ST7735_DrawImage(0, 0, 128, 128, &ground);
 800053e:	2380      	movs	r3, #128	; 0x80
 8000540:	f8df 80b0 	ldr.w	r8, [pc, #176]	; 80005f4 <main+0x378>
 8000544:	461a      	mov	r2, r3
 8000546:	4621      	mov	r1, r4
 8000548:	4620      	mov	r0, r4
 800054a:	f8cd 8000 	str.w	r8, [sp]
 800054e:	f000 fb96 	bl	8000c7e <ST7735_DrawImage>
        num = (rand() % (upper - lower + 1)) + lower;
 8000552:	f002 f8cb 	bl	80026ec <rand>
 8000556:	fb90 f3f7 	sdiv	r3, r0, r7
 800055a:	fb03 0017 	mls	r0, r3, r7, r0
  col_array[0] = printRandoms(30, 100);
 800055e:	f8df 9098 	ldr.w	r9, [pc, #152]	; 80005f8 <main+0x37c>
        num = (rand() % (upper - lower + 1)) + lower;
 8000562:	301e      	adds	r0, #30
  col_array[0] = printRandoms(30, 100);
 8000564:	f8c9 0000 	str.w	r0, [r9]
        num = (rand() % (upper - lower + 1)) + lower;
 8000568:	f002 f8c0 	bl	80026ec <rand>
 800056c:	fb90 f3f7 	sdiv	r3, r0, r7
 8000570:	fb03 0017 	mls	r0, r3, r7, r0
  col_pos[0] = 128;
 8000574:	2780      	movs	r7, #128	; 0x80
 8000576:	f8df a084 	ldr.w	sl, [pc, #132]	; 80005fc <main+0x380>
        num = (rand() % (upper - lower + 1)) + lower;
 800057a:	301e      	adds	r0, #30
  col_array[1] = printRandoms(30, 100);
 800057c:	f8c9 0004 	str.w	r0, [r9, #4]
  HAL_TIM_Base_Start_IT(&htim3);
 8000580:	4630      	mov	r0, r6
  volatile uint8_t at_the_end = 0;
 8000582:	f88d 402c 	strb.w	r4, [sp, #44]	; 0x2c
  col_pos[1] = 128;
 8000586:	e9ca 7700 	strd	r7, r7, [sl]
  volatile uint8_t score = 0;
 800058a:	f88d 403c 	strb.w	r4, [sp, #60]	; 0x3c
  col_pos[2] = 128;
 800058e:	f8ca 7008 	str.w	r7, [sl, #8]
  HAL_TIM_Base_Start_IT(&htim3);
 8000592:	f001 fcfd 	bl	8001f90 <HAL_TIM_Base_Start_IT>
   HAL_TIM_PWM_Start(&htim2,TIM_CHANNEL_4);
 8000596:	4628      	mov	r0, r5
 8000598:	210c      	movs	r1, #12
 800059a:	f001 ff87 	bl	80024ac <HAL_TIM_PWM_Start>
   __HAL_TIM_SET_COMPARE(&htim2, TIM_CHANNEL_4, 100);
 800059e:	2264      	movs	r2, #100	; 0x64
 80005a0:	682b      	ldr	r3, [r5, #0]
   __HAL_TIM_SET_AUTORELOAD(&htim2,0);
 80005a2:	60ec      	str	r4, [r5, #12]
   __HAL_TIM_SET_COMPARE(&htim2, TIM_CHANNEL_4, 100);
 80005a4:	641a      	str	r2, [r3, #64]	; 0x40
  uint8_t game_over = 0;
 80005a6:	9403      	str	r4, [sp, #12]
   __HAL_TIM_SET_AUTORELOAD(&htim2,0);
 80005a8:	62dc      	str	r4, [r3, #44]	; 0x2c
 80005aa:	464d      	mov	r5, r9
				  ptr[a*128 + b] = ground[col_pos[0] +a][b];
 80005ac:	4656      	mov	r6, sl
 80005ae:	4654      	mov	r4, sl
 80005b0:	e026      	b.n	8000600 <main+0x384>
 80005b2:	bf00      	nop
 80005b4:	40021000 	.word	0x40021000
 80005b8:	40010c00 	.word	0x40010c00
 80005bc:	10110000 	.word	0x10110000
 80005c0:	40010800 	.word	0x40010800
 80005c4:	40011000 	.word	0x40011000
 80005c8:	20000398 	.word	0x20000398
 80005cc:	40013000 	.word	0x40013000
 80005d0:	200000a4 	.word	0x200000a4
 80005d4:	40003800 	.word	0x40003800
 80005d8:	200003f0 	.word	0x200003f0
 80005dc:	20000358 	.word	0x20000358
 80005e0:	40012c00 	.word	0x40012c00
 80005e4:	200000fc 	.word	0x200000fc
 80005e8:	40000800 	.word	0x40000800
 80005ec:	2000013c 	.word	0x2000013c
 80005f0:	40000400 	.word	0x40000400
 80005f4:	08002ae2 	.word	0x08002ae2
 80005f8:	2000017c 	.word	0x2000017c
 80005fc:	2000034c 	.word	0x2000034c
	  while(!game_over){
 8000600:	9b03      	ldr	r3, [sp, #12]
 8000602:	2b00      	cmp	r3, #0
 8000604:	d1fc      	bne.n	8000600 <main+0x384>
		  ptr = (uint16_t *) calloc(1280, sizeof(uint16_t));
 8000606:	2102      	movs	r1, #2
 8000608:	f44f 60a0 	mov.w	r0, #1280	; 0x500
 800060c:	f001 ff70 	bl	80024f0 <calloc>
 8000610:	6832      	ldr	r2, [r6, #0]
 8000612:	4683      	mov	fp, r0
 8000614:	4601      	mov	r1, r0
 8000616:	eb08 2202 	add.w	r2, r8, r2, lsl #8
 800061a:	f500 6020 	add.w	r0, r0, #2560	; 0xa00
			  for(int b = 0; b < 128; b++){
 800061e:	2300      	movs	r3, #0
				  ptr[a*128 + b] = ground[col_pos[0] +a][b];
 8000620:	f832 c013 	ldrh.w	ip, [r2, r3, lsl #1]
 8000624:	f821 c013 	strh.w	ip, [r1, r3, lsl #1]
			  for(int b = 0; b < 128; b++){
 8000628:	3301      	adds	r3, #1
 800062a:	2b80      	cmp	r3, #128	; 0x80
 800062c:	d1f8      	bne.n	8000620 <main+0x3a4>
 800062e:	f501 7180 	add.w	r1, r1, #256	; 0x100
		  for(int a = 0; a < 10; a++){
 8000632:	4281      	cmp	r1, r0
 8000634:	f502 7280 	add.w	r2, r2, #256	; 0x100
 8000638:	d1f1      	bne.n	800061e <main+0x3a2>
		  ptr1 = (uint16_t *) calloc(1280, sizeof(uint16_t));
 800063a:	2102      	movs	r1, #2
 800063c:	f44f 60a0 	mov.w	r0, #1280	; 0x500
 8000640:	f001 ff56 	bl	80024f0 <calloc>
 8000644:	6862      	ldr	r2, [r4, #4]
 8000646:	4682      	mov	sl, r0
 8000648:	4601      	mov	r1, r0
 800064a:	eb08 2202 	add.w	r2, r8, r2, lsl #8
 800064e:	f500 6020 	add.w	r0, r0, #2560	; 0xa00
					  for(int b = 0; b < 128; b++){
 8000652:	2300      	movs	r3, #0
						  ptr1[a*128 + b] = ground[col_pos[1] +a][b];
 8000654:	f832 c013 	ldrh.w	ip, [r2, r3, lsl #1]
 8000658:	f821 c013 	strh.w	ip, [r1, r3, lsl #1]
					  for(int b = 0; b < 128; b++){
 800065c:	3301      	adds	r3, #1
 800065e:	2b80      	cmp	r3, #128	; 0x80
 8000660:	d1f8      	bne.n	8000654 <main+0x3d8>
 8000662:	f501 7180 	add.w	r1, r1, #256	; 0x100
				  for(int a = 0; a < 10; a++){
 8000666:	4281      	cmp	r1, r0
 8000668:	f502 7280 	add.w	r2, r2, #256	; 0x100
 800066c:	d1f1      	bne.n	8000652 <main+0x3d6>
				  ptr2 = (uint16_t *) calloc(1280, sizeof(uint16_t));
 800066e:	2102      	movs	r1, #2
 8000670:	f44f 60a0 	mov.w	r0, #1280	; 0x500
 8000674:	f001 ff3c 	bl	80024f0 <calloc>
 8000678:	4602      	mov	r2, r0
 800067a:	68a3      	ldr	r3, [r4, #8]
 800067c:	9002      	str	r0, [sp, #8]
 800067e:	eb08 2303 	add.w	r3, r8, r3, lsl #8
 8000682:	f500 6120 	add.w	r1, r0, #2560	; 0xa00
				 			  for(int b = 0; b < 128; b++){
 8000686:	f04f 0900 	mov.w	r9, #0
				 				  ptr2[a*128 + b] = ground[col_pos[2] +a][b];
 800068a:	f833 0019 	ldrh.w	r0, [r3, r9, lsl #1]
 800068e:	f822 0019 	strh.w	r0, [r2, r9, lsl #1]
				 			  for(int b = 0; b < 128; b++){
 8000692:	f109 0901 	add.w	r9, r9, #1
 8000696:	f1b9 0f80 	cmp.w	r9, #128	; 0x80
 800069a:	d1f6      	bne.n	800068a <main+0x40e>
 800069c:	f502 7280 	add.w	r2, r2, #256	; 0x100
				 		  for(int a = 0; a < 10; a++){
 80006a0:	4291      	cmp	r1, r2
 80006a2:	f503 7380 	add.w	r3, r3, #256	; 0x100
 80006a6:	d1ee      	bne.n	8000686 <main+0x40a>
			  buffer[a][b] = ground[a][b + i];
 80006a8:	4ba8      	ldr	r3, [pc, #672]	; (800094c <main+0x6d0>)
 80006aa:	49a9      	ldr	r1, [pc, #676]	; (8000950 <main+0x6d4>)
 80006ac:	681b      	ldr	r3, [r3, #0]
 80006ae:	f501 7ce1 	add.w	ip, r1, #450	; 0x1c2
 80006b2:	eb08 0043 	add.w	r0, r8, r3, lsl #1
		  for(int b = 0; b < 15; b++){
 80006b6:	2200      	movs	r2, #0
			  buffer[a][b] = ground[a][b + i];
 80006b8:	f830 e012 	ldrh.w	lr, [r0, r2, lsl #1]
 80006bc:	f821 e012 	strh.w	lr, [r1, r2, lsl #1]
		  for(int b = 0; b < 15; b++){
 80006c0:	3201      	adds	r2, #1
 80006c2:	2a0f      	cmp	r2, #15
 80006c4:	d1f8      	bne.n	80006b8 <main+0x43c>
 80006c6:	311e      	adds	r1, #30
	  for(int a = 0; a < 15; a++){
 80006c8:	4561      	cmp	r1, ip
 80006ca:	f500 7080 	add.w	r0, r0, #256	; 0x100
 80006ce:	d1f2      	bne.n	80006b6 <main+0x43a>
      if(i < 108){
 80006d0:	2b6b      	cmp	r3, #107	; 0x6b
 80006d2:	dc54      	bgt.n	800077e <main+0x502>
    	  i+=2;
 80006d4:	4a9d      	ldr	r2, [pc, #628]	; (800094c <main+0x6d0>)
 80006d6:	3302      	adds	r3, #2
 80006d8:	6013      	str	r3, [r2, #0]
      if(col_pos[0] > 0){
 80006da:	6823      	ldr	r3, [r4, #0]
 80006dc:	2b00      	cmp	r3, #0
 80006de:	dd59      	ble.n	8000794 <main+0x518>
    	  if((col_pos[0] == 128)){
 80006e0:	2b80      	cmp	r3, #128	; 0x80
 80006e2:	d10f      	bne.n	8000704 <main+0x488>
    		  if(at_the_end == 1){
 80006e4:	f89d 102c 	ldrb.w	r1, [sp, #44]	; 0x2c
 80006e8:	b2c9      	uxtb	r1, r1
 80006ea:	2901      	cmp	r1, #1
 80006ec:	d10a      	bne.n	8000704 <main+0x488>
    		  score++;
 80006ee:	f89d 203c 	ldrb.w	r2, [sp, #60]	; 0x3c
 80006f2:	3201      	adds	r2, #1
 80006f4:	b2d2      	uxtb	r2, r2
 80006f6:	f88d 203c 	strb.w	r2, [sp, #60]	; 0x3c
    		  at_the_end = 0;
 80006fa:	2200      	movs	r2, #0
 80006fc:	f88d 202c 	strb.w	r2, [sp, #44]	; 0x2c
    		  sound_on = 1;
 8000700:	4a94      	ldr	r2, [pc, #592]	; (8000954 <main+0x6d8>)
 8000702:	7011      	strb	r1, [r2, #0]
    	  col_pos[0]--;
 8000704:	3b01      	subs	r3, #1
 8000706:	6023      	str	r3, [r4, #0]
      if(col_pos[1] < 0 ){
 8000708:	6863      	ldr	r3, [r4, #4]
 800070a:	2b00      	cmp	r3, #0
 800070c:	da4f      	bge.n	80007ae <main+0x532>
    	  col_pos[1] = 128;
 800070e:	2380      	movs	r3, #128	; 0x80
 8000710:	6063      	str	r3, [r4, #4]
        num = (rand() % (upper - lower + 1)) + lower;
 8000712:	f001 ffeb 	bl	80026ec <rand>
 8000716:	2365      	movs	r3, #101	; 0x65
 8000718:	fb90 f2f3 	sdiv	r2, r0, r3
 800071c:	fb02 0013 	mls	r0, r2, r3, r0
    	  col_array[1] = printRandoms(0, 100);
 8000720:	6068      	str	r0, [r5, #4]
      if(col_pos[2] < 0){
 8000722:	68a3      	ldr	r3, [r4, #8]
 8000724:	2b00      	cmp	r3, #0
 8000726:	da5c      	bge.n	80007e2 <main+0x566>
    	  col_pos[2] = 128;
 8000728:	2380      	movs	r3, #128	; 0x80
 800072a:	60a3      	str	r3, [r4, #8]
        num = (rand() % (upper - lower + 1)) + lower;
 800072c:	f001 ffde 	bl	80026ec <rand>
 8000730:	2365      	movs	r3, #101	; 0x65
 8000732:	fb90 f2f3 	sdiv	r2, r0, r3
 8000736:	fb02 0013 	mls	r0, r2, r3, r0
    	  col_array[2] = printRandoms(0, 100);
 800073a:	60a8      	str	r0, [r5, #8]
      if(j > 0){
 800073c:	2f00      	cmp	r7, #0
 800073e:	dd6a      	ble.n	8000816 <main+0x59a>
    	  j--;
 8000740:	f107 39ff 	add.w	r9, r7, #4294967295
 8000744:	4b81      	ldr	r3, [pc, #516]	; (800094c <main+0x6d0>)
 8000746:	6818      	ldr	r0, [r3, #0]
          if((col_pos[0] < 15) && (col_pos[0] > 0)){
 8000748:	6823      	ldr	r3, [r4, #0]
 800074a:	3b01      	subs	r3, #1
 800074c:	2b0d      	cmp	r3, #13
 800074e:	d86b      	bhi.n	8000828 <main+0x5ac>
        	  if( (col_array[0] > i) || ((col_array[0]+10) < i )){
 8000750:	682b      	ldr	r3, [r5, #0]
 8000752:	4283      	cmp	r3, r0
 8000754:	dd62      	ble.n	800081c <main+0x5a0>
        		  ST7735_DrawImage(0, 0, 128, 128, &ground);
 8000756:	2380      	movs	r3, #128	; 0x80
 8000758:	2100      	movs	r1, #0
 800075a:	461a      	mov	r2, r3
 800075c:	4608      	mov	r0, r1
 800075e:	f8cd 8000 	str.w	r8, [sp]
 8000762:	f000 fa8c 	bl	8000c7e <ST7735_DrawImage>
        	      ST7735_DrawImage(50, 0, 33, 128, &over);
 8000766:	4b7c      	ldr	r3, [pc, #496]	; (8000958 <main+0x6dc>)
 8000768:	2221      	movs	r2, #33	; 0x21
 800076a:	9300      	str	r3, [sp, #0]
 800076c:	2100      	movs	r1, #0
 800076e:	2380      	movs	r3, #128	; 0x80
 8000770:	2032      	movs	r0, #50	; 0x32
 8000772:	f000 fa84 	bl	8000c7e <ST7735_DrawImage>
        	      game_over = 1;
 8000776:	2301      	movs	r3, #1
 8000778:	9303      	str	r3, [sp, #12]
 800077a:	464f      	mov	r7, r9
 800077c:	e740      	b.n	8000600 <main+0x384>
    	  ST7735_DrawImage(50, 0, 33, 128, &over);
 800077e:	4b76      	ldr	r3, [pc, #472]	; (8000958 <main+0x6dc>)
 8000780:	2221      	movs	r2, #33	; 0x21
 8000782:	9300      	str	r3, [sp, #0]
 8000784:	2100      	movs	r1, #0
 8000786:	2380      	movs	r3, #128	; 0x80
 8000788:	2032      	movs	r0, #50	; 0x32
 800078a:	f000 fa78 	bl	8000c7e <ST7735_DrawImage>
    	  game_over = 1;
 800078e:	2301      	movs	r3, #1
 8000790:	9303      	str	r3, [sp, #12]
 8000792:	e7a2      	b.n	80006da <main+0x45e>
    	  col_pos[0] = 128;
 8000794:	2780      	movs	r7, #128	; 0x80
        num = (rand() % (upper - lower + 1)) + lower;
 8000796:	f001 ffa9 	bl	80026ec <rand>
    	  col_pos[0] = 128;
 800079a:	6027      	str	r7, [r4, #0]
        num = (rand() % (upper - lower + 1)) + lower;
 800079c:	f001 ffa6 	bl	80026ec <rand>
 80007a0:	2365      	movs	r3, #101	; 0x65
 80007a2:	fb90 f2f3 	sdiv	r2, r0, r3
 80007a6:	fb02 0013 	mls	r0, r2, r3, r0
    	  col_array[0] = printRandoms(0, 100);
 80007aa:	6028      	str	r0, [r5, #0]
 80007ac:	e7ac      	b.n	8000708 <main+0x48c>
    	  if(col_pos[1] != 128){
 80007ae:	2b80      	cmp	r3, #128	; 0x80
 80007b0:	d002      	beq.n	80007b8 <main+0x53c>
     	     col_pos[1] --;
 80007b2:	3b01      	subs	r3, #1
            	 col_pos[1] --;
 80007b4:	6063      	str	r3, [r4, #4]
 80007b6:	e7b4      	b.n	8000722 <main+0x4a6>
             	if(at_the_end == 1){
 80007b8:	f89d 202c 	ldrb.w	r2, [sp, #44]	; 0x2c
 80007bc:	b2d2      	uxtb	r2, r2
 80007be:	2a01      	cmp	r2, #1
 80007c0:	d10a      	bne.n	80007d8 <main+0x55c>
               		score++;
 80007c2:	f89d 303c 	ldrb.w	r3, [sp, #60]	; 0x3c
 80007c6:	3301      	adds	r3, #1
 80007c8:	b2db      	uxtb	r3, r3
 80007ca:	f88d 303c 	strb.w	r3, [sp, #60]	; 0x3c
               		at_the_end = 0;
 80007ce:	2300      	movs	r3, #0
 80007d0:	f88d 302c 	strb.w	r3, [sp, #44]	; 0x2c
               		sound_on = 1;
 80007d4:	4b5f      	ldr	r3, [pc, #380]	; (8000954 <main+0x6d8>)
 80007d6:	701a      	strb	r2, [r3, #0]
             if(col_pos[0] < 88){
 80007d8:	6823      	ldr	r3, [r4, #0]
 80007da:	2b57      	cmp	r3, #87	; 0x57
 80007dc:	dca1      	bgt.n	8000722 <main+0x4a6>
            	 col_pos[1] --;
 80007de:	237f      	movs	r3, #127	; 0x7f
 80007e0:	e7e8      	b.n	80007b4 <main+0x538>
          	  if(col_pos[2] != 128){
 80007e2:	2b80      	cmp	r3, #128	; 0x80
 80007e4:	d002      	beq.n	80007ec <main+0x570>
          		  col_pos[2] --;
 80007e6:	3b01      	subs	r3, #1
          	         col_pos[2] --;
 80007e8:	60a3      	str	r3, [r4, #8]
 80007ea:	e7a7      	b.n	800073c <main+0x4c0>
             	if(at_the_end == 1){
 80007ec:	f89d 202c 	ldrb.w	r2, [sp, #44]	; 0x2c
 80007f0:	b2d2      	uxtb	r2, r2
 80007f2:	2a01      	cmp	r2, #1
 80007f4:	d10a      	bne.n	800080c <main+0x590>
             		score++;
 80007f6:	f89d 303c 	ldrb.w	r3, [sp, #60]	; 0x3c
 80007fa:	3301      	adds	r3, #1
 80007fc:	b2db      	uxtb	r3, r3
 80007fe:	f88d 303c 	strb.w	r3, [sp, #60]	; 0x3c
             		at_the_end = 0;
 8000802:	2300      	movs	r3, #0
 8000804:	f88d 302c 	strb.w	r3, [sp, #44]	; 0x2c
             		sound_on = 1;
 8000808:	4b52      	ldr	r3, [pc, #328]	; (8000954 <main+0x6d8>)
 800080a:	701a      	strb	r2, [r3, #0]
          	      if(col_pos[1] < 88){
 800080c:	6863      	ldr	r3, [r4, #4]
 800080e:	2b57      	cmp	r3, #87	; 0x57
 8000810:	dc94      	bgt.n	800073c <main+0x4c0>
          	         col_pos[2] --;
 8000812:	237f      	movs	r3, #127	; 0x7f
 8000814:	e7e8      	b.n	80007e8 <main+0x56c>
        num = (rand() % (upper - lower + 1)) + lower;
 8000816:	f001 ff69 	bl	80026ec <rand>
 800081a:	e793      	b.n	8000744 <main+0x4c8>
        	  if( (col_array[0] > i) || ((col_array[0]+10) < i )){
 800081c:	330a      	adds	r3, #10
 800081e:	4283      	cmp	r3, r0
 8000820:	db99      	blt.n	8000756 <main+0x4da>
        	   at_the_end = 1;
 8000822:	2301      	movs	r3, #1
 8000824:	f88d 302c 	strb.w	r3, [sp, #44]	; 0x2c
          if((col_pos[1] < 15) && (col_pos[1] > 0)){
 8000828:	6863      	ldr	r3, [r4, #4]
 800082a:	3b01      	subs	r3, #1
 800082c:	2b0d      	cmp	r3, #13
 800082e:	d808      	bhi.n	8000842 <main+0x5c6>
        	  if( (col_array[1] > i) || ((col_array[1]+15) < i )){
 8000830:	686b      	ldr	r3, [r5, #4]
 8000832:	4283      	cmp	r3, r0
 8000834:	dc8f      	bgt.n	8000756 <main+0x4da>
 8000836:	330f      	adds	r3, #15
 8000838:	4283      	cmp	r3, r0
 800083a:	db8c      	blt.n	8000756 <main+0x4da>
             	 at_the_end = 1;
 800083c:	2301      	movs	r3, #1
 800083e:	f88d 302c 	strb.w	r3, [sp, #44]	; 0x2c
          if((col_pos[2] < 15) && (col_pos[2] > 0)){
 8000842:	68a3      	ldr	r3, [r4, #8]
 8000844:	3b01      	subs	r3, #1
 8000846:	2b0d      	cmp	r3, #13
 8000848:	d809      	bhi.n	800085e <main+0x5e2>
                  	  if( (col_array[2] > i) || ((col_array[2]+15) < i )){
 800084a:	68ab      	ldr	r3, [r5, #8]
 800084c:	4283      	cmp	r3, r0
 800084e:	dc82      	bgt.n	8000756 <main+0x4da>
 8000850:	330f      	adds	r3, #15
 8000852:	4283      	cmp	r3, r0
 8000854:	f6ff af7f 	blt.w	8000756 <main+0x4da>
             	 at_the_end = 1;
 8000858:	2301      	movs	r3, #1
 800085a:	f88d 302c 	strb.w	r3, [sp, #44]	; 0x2c
	  ST7735_FillRectangle(0, col_pos[0], col_array[0] , 10, ST7735_GREEN);
 800085e:	f44f 67fc 	mov.w	r7, #2016	; 0x7e0
          draw_bird(i, 0, &bird);
 8000862:	4a3e      	ldr	r2, [pc, #248]	; (800095c <main+0x6e0>)
 8000864:	2100      	movs	r1, #0
 8000866:	b280      	uxth	r0, r0
 8000868:	f7ff fcac 	bl	80001c4 <draw_bird>
	  ST7735_FillRectangle(0, col_pos[0], col_array[0] , 10, ST7735_GREEN);
 800086c:	882a      	ldrh	r2, [r5, #0]
 800086e:	8831      	ldrh	r1, [r6, #0]
 8000870:	230a      	movs	r3, #10
 8000872:	2000      	movs	r0, #0
 8000874:	9700      	str	r7, [sp, #0]
 8000876:	f000 f9f5 	bl	8000c64 <ST7735_FillRectangle>
	  ST7735_FillRectangle(col_array[0] + 25,col_pos[0], 88 - col_array[0] , 10, ST7735_GREEN);
 800087a:	8828      	ldrh	r0, [r5, #0]
 800087c:	8831      	ldrh	r1, [r6, #0]
 800087e:	f1c0 0258 	rsb	r2, r0, #88	; 0x58
 8000882:	3019      	adds	r0, #25
 8000884:	9700      	str	r7, [sp, #0]
 8000886:	230a      	movs	r3, #10
 8000888:	b292      	uxth	r2, r2
 800088a:	b280      	uxth	r0, r0
 800088c:	f000 f9ea 	bl	8000c64 <ST7735_FillRectangle>
	  if(col_pos[1] < 128){
 8000890:	6871      	ldr	r1, [r6, #4]
 8000892:	297f      	cmp	r1, #127	; 0x7f
 8000894:	dc11      	bgt.n	80008ba <main+0x63e>
		  ST7735_FillRectangle(0, col_pos[1], col_array[1] , 10, ST7735_GREEN);
 8000896:	88aa      	ldrh	r2, [r5, #4]
 8000898:	230a      	movs	r3, #10
 800089a:	b289      	uxth	r1, r1
 800089c:	2000      	movs	r0, #0
 800089e:	9700      	str	r7, [sp, #0]
 80008a0:	f000 f9e0 	bl	8000c64 <ST7735_FillRectangle>
		  ST7735_FillRectangle(col_array[1] + 25,col_pos[1], 88 - col_array[1] , 10, ST7735_GREEN);
 80008a4:	88a8      	ldrh	r0, [r5, #4]
 80008a6:	88b1      	ldrh	r1, [r6, #4]
 80008a8:	f1c0 0258 	rsb	r2, r0, #88	; 0x58
 80008ac:	3019      	adds	r0, #25
 80008ae:	9700      	str	r7, [sp, #0]
 80008b0:	230a      	movs	r3, #10
 80008b2:	b292      	uxth	r2, r2
 80008b4:	b280      	uxth	r0, r0
 80008b6:	f000 f9d5 	bl	8000c64 <ST7735_FillRectangle>
	  if(col_pos[2] < 128){
 80008ba:	68b1      	ldr	r1, [r6, #8]
 80008bc:	297f      	cmp	r1, #127	; 0x7f
 80008be:	dc13      	bgt.n	80008e8 <main+0x66c>
	 		  ST7735_FillRectangle(0, col_pos[2], col_array[2] , 10, ST7735_GREEN);
 80008c0:	f44f 67fc 	mov.w	r7, #2016	; 0x7e0
 80008c4:	892a      	ldrh	r2, [r5, #8]
 80008c6:	230a      	movs	r3, #10
 80008c8:	b289      	uxth	r1, r1
 80008ca:	2000      	movs	r0, #0
 80008cc:	9700      	str	r7, [sp, #0]
 80008ce:	f000 f9c9 	bl	8000c64 <ST7735_FillRectangle>
	 		  ST7735_FillRectangle(col_array[2] + 25,col_pos[2], 88 - col_array[2] , 10, ST7735_GREEN);
 80008d2:	8928      	ldrh	r0, [r5, #8]
 80008d4:	8931      	ldrh	r1, [r6, #8]
 80008d6:	f1c0 0258 	rsb	r2, r0, #88	; 0x58
 80008da:	3019      	adds	r0, #25
 80008dc:	9700      	str	r7, [sp, #0]
 80008de:	230a      	movs	r3, #10
 80008e0:	b292      	uxth	r2, r2
 80008e2:	b280      	uxth	r0, r0
 80008e4:	f000 f9be 	bl	8000c64 <ST7735_FillRectangle>
	  HAL_Delay(100);
 80008e8:	2064      	movs	r0, #100	; 0x64
 80008ea:	f000 fcfd 	bl	80012e8 <HAL_Delay>
	  ST7735_DrawImage(i, 0, 15, 15, &buffer);
 80008ee:	4b17      	ldr	r3, [pc, #92]	; (800094c <main+0x6d0>)
 80008f0:	2100      	movs	r1, #0
 80008f2:	8818      	ldrh	r0, [r3, #0]
 80008f4:	4b16      	ldr	r3, [pc, #88]	; (8000950 <main+0x6d4>)
 80008f6:	9300      	str	r3, [sp, #0]
 80008f8:	230f      	movs	r3, #15
 80008fa:	461a      	mov	r2, r3
 80008fc:	f000 f9bf 	bl	8000c7e <ST7735_DrawImage>
	  ST7735_DrawImage(0, col_pos[0], 128, 10, ptr);
 8000900:	8821      	ldrh	r1, [r4, #0]
 8000902:	230a      	movs	r3, #10
 8000904:	f8cd b000 	str.w	fp, [sp]
 8000908:	2280      	movs	r2, #128	; 0x80
 800090a:	2000      	movs	r0, #0
 800090c:	f000 f9b7 	bl	8000c7e <ST7735_DrawImage>
	  ST7735_DrawImage(0, col_pos[1], 128, 10, ptr1);
 8000910:	88a1      	ldrh	r1, [r4, #4]
 8000912:	230a      	movs	r3, #10
 8000914:	f8cd a000 	str.w	sl, [sp]
 8000918:	2280      	movs	r2, #128	; 0x80
 800091a:	2000      	movs	r0, #0
 800091c:	f000 f9af 	bl	8000c7e <ST7735_DrawImage>
	  ST7735_DrawImage(0, col_pos[2], 128, 10, ptr2);
 8000920:	9b02      	ldr	r3, [sp, #8]
 8000922:	8921      	ldrh	r1, [r4, #8]
 8000924:	2280      	movs	r2, #128	; 0x80
 8000926:	9300      	str	r3, [sp, #0]
 8000928:	2000      	movs	r0, #0
 800092a:	230a      	movs	r3, #10
 800092c:	f000 f9a7 	bl	8000c7e <ST7735_DrawImage>
	  print_score(score);
 8000930:	f89d 003c 	ldrb.w	r0, [sp, #60]	; 0x3c
 8000934:	f7ff fc0a 	bl	800014c <print_score>
	  free(ptr);
 8000938:	4658      	mov	r0, fp
 800093a:	f001 fe13 	bl	8002564 <free>
	  free(ptr1);
 800093e:	4650      	mov	r0, sl
 8000940:	f001 fe10 	bl	8002564 <free>
	  free(ptr2);
 8000944:	9802      	ldr	r0, [sp, #8]
 8000946:	f001 fe0d 	bl	8002564 <free>
 800094a:	e716      	b.n	800077a <main+0x4fe>
 800094c:	20000090 	.word	0x20000090
 8000950:	20000188 	.word	0x20000188
 8000954:	20000095 	.word	0x20000095
 8000958:	0800abe2 	.word	0x0800abe2
 800095c:	080027a0 	.word	0x080027a0

08000960 <HAL_TIM_PeriodElapsedCallback>:

}

/* USER CODE BEGIN 4 */
void HAL_TIM_PeriodElapsedCallback(TIM_HandleTypeDef *htim)
{
 8000960:	b5f7      	push	{r0, r1, r2, r4, r5, r6, r7, lr}
  UNUSED(htim);

  /* NOTE : This function should not be modified, when the callback is needed,
            the HAL_TIM_PeriodElapsedCallback could be implemented in the user file
   */
  if(pin_selected == 3 ){
 8000962:	4c39      	ldr	r4, [pc, #228]	; (8000a48 <HAL_TIM_PeriodElapsedCallback+0xe8>)
 8000964:	7823      	ldrb	r3, [r4, #0]
 8000966:	2b03      	cmp	r3, #3
 8000968:	d12a      	bne.n	80009c0 <HAL_TIM_PeriodElapsedCallback+0x60>
  	if(HAL_GPIO_ReadPin(GPIOC, 8192) == GPIO_PIN_SET){
 800096a:	f44f 5100 	mov.w	r1, #8192	; 0x2000
 800096e:	4837      	ldr	r0, [pc, #220]	; (8000a4c <HAL_TIM_PeriodElapsedCallback+0xec>)
 8000970:	f000 feda 	bl	8001728 <HAL_GPIO_ReadPin>
 8000974:	2801      	cmp	r0, #1
 8000976:	d121      	bne.n	80009bc <HAL_TIM_PeriodElapsedCallback+0x5c>
 8000978:	4a35      	ldr	r2, [pc, #212]	; (8000a50 <HAL_TIM_PeriodElapsedCallback+0xf0>)
//  		HAL_GPIO_TogglePin(GPIOA,GPIO_PIN_6);
    	  for(int a = 0; a < 15; a++){
    			  for(int b = 0; b < 15; b++){
    				  buffer[a][b] = ground[a][b + i];
 800097a:	4d36      	ldr	r5, [pc, #216]	; (8000a54 <HAL_TIM_PeriodElapsedCallback+0xf4>)
 800097c:	4616      	mov	r6, r2
 800097e:	6828      	ldr	r0, [r5, #0]
 8000980:	4935      	ldr	r1, [pc, #212]	; (8000a58 <HAL_TIM_PeriodElapsedCallback+0xf8>)
 8000982:	f502 77e1 	add.w	r7, r2, #450	; 0x1c2
 8000986:	eb01 0140 	add.w	r1, r1, r0, lsl #1
    			  for(int b = 0; b < 15; b++){
 800098a:	2300      	movs	r3, #0
    				  buffer[a][b] = ground[a][b + i];
 800098c:	f831 c013 	ldrh.w	ip, [r1, r3, lsl #1]
 8000990:	f822 c013 	strh.w	ip, [r2, r3, lsl #1]
    			  for(int b = 0; b < 15; b++){
 8000994:	3301      	adds	r3, #1
 8000996:	2b0f      	cmp	r3, #15
 8000998:	d1f8      	bne.n	800098c <HAL_TIM_PeriodElapsedCallback+0x2c>
 800099a:	321e      	adds	r2, #30
    	  for(int a = 0; a < 15; a++){
 800099c:	42ba      	cmp	r2, r7
 800099e:	f501 7180 	add.w	r1, r1, #256	; 0x100
 80009a2:	d1f2      	bne.n	800098a <HAL_TIM_PeriodElapsedCallback+0x2a>
    			  }
    		  }
    	ST7735_DrawImage(i, 0, 15, 15, &buffer);
 80009a4:	461a      	mov	r2, r3
 80009a6:	b280      	uxth	r0, r0
 80009a8:	9600      	str	r6, [sp, #0]
 80009aa:	2100      	movs	r1, #0
 80009ac:	f000 f967 	bl	8000c7e <ST7735_DrawImage>

  		i -= 5;
 80009b0:	682b      	ldr	r3, [r5, #0]


  		HAL_TIM_Base_Stop_IT(&htim4);
 80009b2:	482a      	ldr	r0, [pc, #168]	; (8000a5c <HAL_TIM_PeriodElapsedCallback+0xfc>)
  		i -= 5;
 80009b4:	3b05      	subs	r3, #5
 80009b6:	602b      	str	r3, [r5, #0]
  		HAL_TIM_Base_Stop_IT(&htim4);
 80009b8:	f001 fafa 	bl	8001fb0 <HAL_TIM_Base_Stop_IT>
  	}

  	pin_selected = 0;
 80009bc:	2300      	movs	r3, #0
 80009be:	7023      	strb	r3, [r4, #0]
    }
    if(pin_selected == 4 ){
 80009c0:	7825      	ldrb	r5, [r4, #0]
 80009c2:	2d04      	cmp	r5, #4
 80009c4:	d12e      	bne.n	8000a24 <HAL_TIM_PeriodElapsedCallback+0xc4>
  	if(HAL_GPIO_ReadPin(GPIOC, 16384) == GPIO_PIN_SET){
 80009c6:	f44f 4180 	mov.w	r1, #16384	; 0x4000
 80009ca:	4820      	ldr	r0, [pc, #128]	; (8000a4c <HAL_TIM_PeriodElapsedCallback+0xec>)
 80009cc:	f000 feac 	bl	8001728 <HAL_GPIO_ReadPin>
 80009d0:	2801      	cmp	r0, #1
 80009d2:	d125      	bne.n	8000a20 <HAL_TIM_PeriodElapsedCallback+0xc0>

  		HAL_GPIO_TogglePin(GPIOB,GPIO_PIN_2);
 80009d4:	4629      	mov	r1, r5
 80009d6:	4822      	ldr	r0, [pc, #136]	; (8000a60 <HAL_TIM_PeriodElapsedCallback+0x100>)
 80009d8:	f000 feb1 	bl	800173e <HAL_GPIO_TogglePin>
 80009dc:	4a1c      	ldr	r2, [pc, #112]	; (8000a50 <HAL_TIM_PeriodElapsedCallback+0xf0>)

  	  for(int a = 0; a < 15; a++){
  	    			  for(int b = 0; b < 15; b++){
  	    				  buffer[a][b] = ground[a][b + i];
 80009de:	4d1d      	ldr	r5, [pc, #116]	; (8000a54 <HAL_TIM_PeriodElapsedCallback+0xf4>)
 80009e0:	4616      	mov	r6, r2
 80009e2:	6828      	ldr	r0, [r5, #0]
 80009e4:	491c      	ldr	r1, [pc, #112]	; (8000a58 <HAL_TIM_PeriodElapsedCallback+0xf8>)
 80009e6:	f502 77e1 	add.w	r7, r2, #450	; 0x1c2
 80009ea:	eb01 0140 	add.w	r1, r1, r0, lsl #1
  	    			  for(int b = 0; b < 15; b++){
 80009ee:	2300      	movs	r3, #0
  	    				  buffer[a][b] = ground[a][b + i];
 80009f0:	f831 c013 	ldrh.w	ip, [r1, r3, lsl #1]
 80009f4:	f822 c013 	strh.w	ip, [r2, r3, lsl #1]
  	    			  for(int b = 0; b < 15; b++){
 80009f8:	3301      	adds	r3, #1
 80009fa:	2b0f      	cmp	r3, #15
 80009fc:	d1f8      	bne.n	80009f0 <HAL_TIM_PeriodElapsedCallback+0x90>
 80009fe:	321e      	adds	r2, #30
  	  for(int a = 0; a < 15; a++){
 8000a00:	42ba      	cmp	r2, r7
 8000a02:	f501 7180 	add.w	r1, r1, #256	; 0x100
 8000a06:	d1f2      	bne.n	80009ee <HAL_TIM_PeriodElapsedCallback+0x8e>
  	    			  }
  	    		  }
  	    	ST7735_DrawImage(i, 0, 15, 15, &buffer);
 8000a08:	461a      	mov	r2, r3
 8000a0a:	b280      	uxth	r0, r0
 8000a0c:	9600      	str	r6, [sp, #0]
 8000a0e:	2100      	movs	r1, #0
 8000a10:	f000 f935 	bl	8000c7e <ST7735_DrawImage>


  		i -= 10;
 8000a14:	682b      	ldr	r3, [r5, #0]
  		HAL_TIM_Base_Stop_IT(&htim4);
 8000a16:	4811      	ldr	r0, [pc, #68]	; (8000a5c <HAL_TIM_PeriodElapsedCallback+0xfc>)
  		i -= 10;
 8000a18:	3b0a      	subs	r3, #10
 8000a1a:	602b      	str	r3, [r5, #0]
  		HAL_TIM_Base_Stop_IT(&htim4);
 8000a1c:	f001 fac8 	bl	8001fb0 <HAL_TIM_Base_Stop_IT>
  	}

  	pin_selected = 0;
 8000a20:	2300      	movs	r3, #0
 8000a22:	7023      	strb	r3, [r4, #0]
    }
    if(pin_selected == 4 ){
 8000a24:	7823      	ldrb	r3, [r4, #0]
 8000a26:	2b04      	cmp	r3, #4
 8000a28:	d10b      	bne.n	8000a42 <HAL_TIM_PeriodElapsedCallback+0xe2>
  	if(HAL_GPIO_ReadPin(GPIOC,  32768) == GPIO_PIN_SET){
 8000a2a:	f44f 4100 	mov.w	r1, #32768	; 0x8000
 8000a2e:	4807      	ldr	r0, [pc, #28]	; (8000a4c <HAL_TIM_PeriodElapsedCallback+0xec>)
 8000a30:	f000 fe7a 	bl	8001728 <HAL_GPIO_ReadPin>
 8000a34:	2801      	cmp	r0, #1
 8000a36:	d102      	bne.n	8000a3e <HAL_TIM_PeriodElapsedCallback+0xde>

//  		HAL_GPIO_TogglePin(GPIOA,GPIO_PIN_7);

  		HAL_TIM_Base_Stop_IT(&htim4);
 8000a38:	4808      	ldr	r0, [pc, #32]	; (8000a5c <HAL_TIM_PeriodElapsedCallback+0xfc>)
 8000a3a:	f001 fab9 	bl	8001fb0 <HAL_TIM_Base_Stop_IT>
  	}

  	pin_selected = 0;
 8000a3e:	2300      	movs	r3, #0
 8000a40:	7023      	strb	r3, [r4, #0]
    }

}
 8000a42:	b003      	add	sp, #12
 8000a44:	bdf0      	pop	{r4, r5, r6, r7, pc}
 8000a46:	bf00      	nop
 8000a48:	20000097 	.word	0x20000097
 8000a4c:	40011000 	.word	0x40011000
 8000a50:	20000188 	.word	0x20000188
 8000a54:	20000090 	.word	0x20000090
 8000a58:	08002ae2 	.word	0x08002ae2
 8000a5c:	200000fc 	.word	0x200000fc
 8000a60:	40010c00 	.word	0x40010c00

08000a64 <Error_Handler>:
{
  /* USER CODE BEGIN Error_Handler_Debug */
  /* User can add his own implementation to report the HAL error return state */

  /* USER CODE END Error_Handler_Debug */
}
 8000a64:	4770      	bx	lr
	...

08000a68 <ST7735_Select>:
      10,                     //     10 ms delay
    ST7735_DISPON ,    DELAY, //  4: Main screen turn on, no args w/delay
      100 };                  //     100 ms delay

static void ST7735_Select() {
    HAL_GPIO_WritePin(ST7735_CS_GPIO_Port, ST7735_CS_Pin, GPIO_PIN_RESET);
 8000a68:	2200      	movs	r2, #0
 8000a6a:	f44f 6180 	mov.w	r1, #1024	; 0x400
 8000a6e:	4801      	ldr	r0, [pc, #4]	; (8000a74 <ST7735_Select+0xc>)
 8000a70:	f000 be60 	b.w	8001734 <HAL_GPIO_WritePin>
 8000a74:	40010800 	.word	0x40010800

08000a78 <ST7735_WriteCommand>:
    HAL_GPIO_WritePin(ST7735_RES_GPIO_Port, ST7735_RES_Pin, GPIO_PIN_RESET);
    HAL_Delay(5);
    HAL_GPIO_WritePin(ST7735_RES_GPIO_Port, ST7735_RES_Pin, GPIO_PIN_SET);
}

static void ST7735_WriteCommand(uint8_t cmd) {
 8000a78:	b513      	push	{r0, r1, r4, lr}
 8000a7a:	ac02      	add	r4, sp, #8
 8000a7c:	f804 0d01 	strb.w	r0, [r4, #-1]!
    HAL_GPIO_WritePin(ST7735_DC_GPIO_Port, ST7735_DC_Pin, GPIO_PIN_RESET);
 8000a80:	2200      	movs	r2, #0
 8000a82:	f44f 7180 	mov.w	r1, #256	; 0x100
 8000a86:	4806      	ldr	r0, [pc, #24]	; (8000aa0 <ST7735_WriteCommand+0x28>)
 8000a88:	f000 fe54 	bl	8001734 <HAL_GPIO_WritePin>
    HAL_SPI_Transmit(&ST7735_SPI_PORT, &cmd, sizeof(cmd), HAL_MAX_DELAY);
 8000a8c:	f04f 33ff 	mov.w	r3, #4294967295
 8000a90:	2201      	movs	r2, #1
 8000a92:	4621      	mov	r1, r4
 8000a94:	4803      	ldr	r0, [pc, #12]	; (8000aa4 <ST7735_WriteCommand+0x2c>)
 8000a96:	f001 f95d 	bl	8001d54 <HAL_SPI_Transmit>
}
 8000a9a:	b002      	add	sp, #8
 8000a9c:	bd10      	pop	{r4, pc}
 8000a9e:	bf00      	nop
 8000aa0:	40010800 	.word	0x40010800
 8000aa4:	200000a4 	.word	0x200000a4

08000aa8 <ST7735_WriteData>:

static void ST7735_WriteData(uint8_t* buff, size_t buff_size) {
 8000aa8:	b570      	push	{r4, r5, r6, lr}
 8000aaa:	4604      	mov	r4, r0
 8000aac:	460d      	mov	r5, r1
    HAL_GPIO_WritePin(ST7735_DC_GPIO_Port, ST7735_DC_Pin, GPIO_PIN_SET);
 8000aae:	2201      	movs	r2, #1
 8000ab0:	f44f 7180 	mov.w	r1, #256	; 0x100
 8000ab4:	4805      	ldr	r0, [pc, #20]	; (8000acc <ST7735_WriteData+0x24>)
 8000ab6:	f000 fe3d 	bl	8001734 <HAL_GPIO_WritePin>
    HAL_SPI_Transmit(&ST7735_SPI_PORT, buff, buff_size, HAL_MAX_DELAY);
 8000aba:	b2aa      	uxth	r2, r5
 8000abc:	4621      	mov	r1, r4
}
 8000abe:	e8bd 4070 	ldmia.w	sp!, {r4, r5, r6, lr}
    HAL_SPI_Transmit(&ST7735_SPI_PORT, buff, buff_size, HAL_MAX_DELAY);
 8000ac2:	f04f 33ff 	mov.w	r3, #4294967295
 8000ac6:	4802      	ldr	r0, [pc, #8]	; (8000ad0 <ST7735_WriteData+0x28>)
 8000ac8:	f001 b944 	b.w	8001d54 <HAL_SPI_Transmit>
 8000acc:	40010800 	.word	0x40010800
 8000ad0:	200000a4 	.word	0x200000a4

08000ad4 <ST7735_ExecuteCommandList>:
static void ST7735_WriteData_16bit(uint8_t* buff, size_t buff_size) {
    HAL_GPIO_WritePin(ST7735_DC_GPIO_Port, ST7735_DC_Pin, GPIO_PIN_SET);
    HAL_SPI_Transmit_DMA(&ST7735_SPI_PORT, buff, buff_size);
}

static void ST7735_ExecuteCommandList(const uint8_t *addr) {
 8000ad4:	b5f8      	push	{r3, r4, r5, r6, r7, lr}
    uint8_t numCommands, numArgs;
    uint16_t ms;

    numCommands = *addr++;
 8000ad6:	7805      	ldrb	r5, [r0, #0]
 8000ad8:	1c46      	adds	r6, r0, #1
    while(numCommands--) {
 8000ada:	3d01      	subs	r5, #1
 8000adc:	b2ed      	uxtb	r5, r5
 8000ade:	2dff      	cmp	r5, #255	; 0xff
 8000ae0:	d100      	bne.n	8000ae4 <ST7735_ExecuteCommandList+0x10>
            ms = *addr++;
            if(ms == 255) ms = 500;
            HAL_Delay(ms);
        }
    }
}
 8000ae2:	bdf8      	pop	{r3, r4, r5, r6, r7, pc}
        ST7735_WriteCommand(cmd);
 8000ae4:	4634      	mov	r4, r6
 8000ae6:	f814 0b02 	ldrb.w	r0, [r4], #2
 8000aea:	f7ff ffc5 	bl	8000a78 <ST7735_WriteCommand>
        numArgs = *addr++;
 8000aee:	7876      	ldrb	r6, [r6, #1]
        if(numArgs) {
 8000af0:	f016 077f 	ands.w	r7, r6, #127	; 0x7f
 8000af4:	d004      	beq.n	8000b00 <ST7735_ExecuteCommandList+0x2c>
            ST7735_WriteData((uint8_t*)addr, numArgs);
 8000af6:	4620      	mov	r0, r4
 8000af8:	4639      	mov	r1, r7
 8000afa:	f7ff ffd5 	bl	8000aa8 <ST7735_WriteData>
            addr += numArgs;
 8000afe:	443c      	add	r4, r7
        if(ms) {
 8000b00:	0633      	lsls	r3, r6, #24
 8000b02:	d508      	bpl.n	8000b16 <ST7735_ExecuteCommandList+0x42>
            ms = *addr++;
 8000b04:	7820      	ldrb	r0, [r4, #0]
 8000b06:	1c66      	adds	r6, r4, #1
            if(ms == 255) ms = 500;
 8000b08:	28ff      	cmp	r0, #255	; 0xff
            HAL_Delay(ms);
 8000b0a:	bf08      	it	eq
 8000b0c:	f44f 70fa 	moveq.w	r0, #500	; 0x1f4
 8000b10:	f000 fbea 	bl	80012e8 <HAL_Delay>
            ms = *addr++;
 8000b14:	4634      	mov	r4, r6
 8000b16:	4626      	mov	r6, r4
 8000b18:	e7df      	b.n	8000ada <ST7735_ExecuteCommandList+0x6>

08000b1a <ST7735_SetAddressWindow>:

static void ST7735_SetAddressWindow(uint8_t x0, uint8_t y0, uint8_t x1, uint8_t y1) {
 8000b1a:	b5f7      	push	{r0, r1, r2, r4, r5, r6, r7, lr}
 8000b1c:	4607      	mov	r7, r0
    // column address set
    ST7735_WriteCommand(ST7735_CASET);
 8000b1e:	202a      	movs	r0, #42	; 0x2a
static void ST7735_SetAddressWindow(uint8_t x0, uint8_t y0, uint8_t x1, uint8_t y1) {
 8000b20:	4616      	mov	r6, r2
 8000b22:	460d      	mov	r5, r1
 8000b24:	461c      	mov	r4, r3
    ST7735_WriteCommand(ST7735_CASET);
 8000b26:	f7ff ffa7 	bl	8000a78 <ST7735_WriteCommand>
    uint8_t data[] = { 0x00, x0 + ST7735_XSTART, 0x00, x1 + ST7735_XSTART };
    ST7735_WriteData(data, sizeof(data));
 8000b2a:	2104      	movs	r1, #4
    uint8_t data[] = { 0x00, x0 + ST7735_XSTART, 0x00, x1 + ST7735_XSTART };
 8000b2c:	2300      	movs	r3, #0
    ST7735_WriteData(data, sizeof(data));
 8000b2e:	eb0d 0001 	add.w	r0, sp, r1
    uint8_t data[] = { 0x00, x0 + ST7735_XSTART, 0x00, x1 + ST7735_XSTART };
 8000b32:	3702      	adds	r7, #2
 8000b34:	3602      	adds	r6, #2
 8000b36:	f88d 3004 	strb.w	r3, [sp, #4]
 8000b3a:	f88d 3006 	strb.w	r3, [sp, #6]
 8000b3e:	f88d 7005 	strb.w	r7, [sp, #5]
 8000b42:	f88d 6007 	strb.w	r6, [sp, #7]
    ST7735_WriteData(data, sizeof(data));
 8000b46:	f7ff ffaf 	bl	8000aa8 <ST7735_WriteData>

    // row address set
    ST7735_WriteCommand(ST7735_RASET);
 8000b4a:	202b      	movs	r0, #43	; 0x2b
 8000b4c:	f7ff ff94 	bl	8000a78 <ST7735_WriteCommand>
    data[1] = y0 + ST7735_YSTART;
    data[3] = y1 + ST7735_YSTART;
    ST7735_WriteData(data, sizeof(data));
 8000b50:	2104      	movs	r1, #4
    data[1] = y0 + ST7735_YSTART;
 8000b52:	3503      	adds	r5, #3
    ST7735_WriteData(data, sizeof(data));
 8000b54:	eb0d 0001 	add.w	r0, sp, r1
    data[3] = y1 + ST7735_YSTART;
 8000b58:	3403      	adds	r4, #3
    data[1] = y0 + ST7735_YSTART;
 8000b5a:	f88d 5005 	strb.w	r5, [sp, #5]
    data[3] = y1 + ST7735_YSTART;
 8000b5e:	f88d 4007 	strb.w	r4, [sp, #7]
    ST7735_WriteData(data, sizeof(data));
 8000b62:	f7ff ffa1 	bl	8000aa8 <ST7735_WriteData>

    // write to RAM
    ST7735_WriteCommand(ST7735_RAMWR);
 8000b66:	202c      	movs	r0, #44	; 0x2c
 8000b68:	f7ff ff86 	bl	8000a78 <ST7735_WriteCommand>
}
 8000b6c:	b003      	add	sp, #12
 8000b6e:	bdf0      	pop	{r4, r5, r6, r7, pc}

08000b70 <ST7735_Unselect>:
    HAL_GPIO_WritePin(ST7735_CS_GPIO_Port, ST7735_CS_Pin, GPIO_PIN_SET);
 8000b70:	2201      	movs	r2, #1
 8000b72:	f44f 6180 	mov.w	r1, #1024	; 0x400
 8000b76:	4801      	ldr	r0, [pc, #4]	; (8000b7c <ST7735_Unselect+0xc>)
 8000b78:	f000 bddc 	b.w	8001734 <HAL_GPIO_WritePin>
 8000b7c:	40010800 	.word	0x40010800

08000b80 <ST7735_FillRectangle.part.1>:
    }

    ST7735_Unselect();
}

void ST7735_FillRectangle(uint16_t x, uint16_t y, uint16_t w, uint16_t h, uint16_t color) {
 8000b80:	e92d 41f3 	stmdb	sp!, {r0, r1, r4, r5, r6, r7, r8, lr}
 8000b84:	461c      	mov	r4, r3
 8000b86:	4615      	mov	r5, r2
 8000b88:	460f      	mov	r7, r1
 8000b8a:	4606      	mov	r6, r0
    // clipping
    if((x >= ST7735_WIDTH) || (y >= ST7735_HEIGHT)) return;
    if((x + w - 1) >= ST7735_WIDTH) w = ST7735_WIDTH - x;
 8000b8c:	1883      	adds	r3, r0, r2
 8000b8e:	2b80      	cmp	r3, #128	; 0x80
 8000b90:	bfc8      	it	gt
 8000b92:	f1c0 0580 	rsbgt	r5, r0, #128	; 0x80
    if((y + h - 1) >= ST7735_HEIGHT) h = ST7735_HEIGHT - y;
 8000b96:	eb01 0304 	add.w	r3, r1, r4
    if((x + w - 1) >= ST7735_WIDTH) w = ST7735_WIDTH - x;
 8000b9a:	bfc8      	it	gt
 8000b9c:	b2ad      	uxthgt	r5, r5
    if((y + h - 1) >= ST7735_HEIGHT) h = ST7735_HEIGHT - y;
 8000b9e:	2b80      	cmp	r3, #128	; 0x80
 8000ba0:	bfc4      	itt	gt
 8000ba2:	f1c1 0480 	rsbgt	r4, r1, #128	; 0x80
 8000ba6:	b2a4      	uxthgt	r4, r4
void ST7735_FillRectangle(uint16_t x, uint16_t y, uint16_t w, uint16_t h, uint16_t color) {
 8000ba8:	f8bd 8020 	ldrh.w	r8, [sp, #32]

    ST7735_Select();
 8000bac:	f7ff ff5c 	bl	8000a68 <ST7735_Select>
    ST7735_SetAddressWindow(x, y, x+w-1, y+h-1);
 8000bb0:	b2f9      	uxtb	r1, r7
 8000bb2:	b2f0      	uxtb	r0, r6
 8000bb4:	1e4b      	subs	r3, r1, #1
 8000bb6:	1e42      	subs	r2, r0, #1
 8000bb8:	4423      	add	r3, r4
 8000bba:	442a      	add	r2, r5
 8000bbc:	b2db      	uxtb	r3, r3
 8000bbe:	b2d2      	uxtb	r2, r2
 8000bc0:	f7ff ffab 	bl	8000b1a <ST7735_SetAddressWindow>

    uint8_t data[] = { color >> 8, color & 0xFF };
 8000bc4:	ea4f 2318 	mov.w	r3, r8, lsr #8
    HAL_GPIO_WritePin(ST7735_DC_GPIO_Port, ST7735_DC_Pin, GPIO_PIN_SET);
 8000bc8:	2201      	movs	r2, #1
 8000bca:	f44f 7180 	mov.w	r1, #256	; 0x100
 8000bce:	480f      	ldr	r0, [pc, #60]	; (8000c0c <ST7735_FillRectangle.part.1+0x8c>)
    uint8_t data[] = { color >> 8, color & 0xFF };
 8000bd0:	f88d 3004 	strb.w	r3, [sp, #4]
 8000bd4:	f88d 8005 	strb.w	r8, [sp, #5]
    HAL_GPIO_WritePin(ST7735_DC_GPIO_Port, ST7735_DC_Pin, GPIO_PIN_SET);
 8000bd8:	f000 fdac 	bl	8001734 <HAL_GPIO_WritePin>
    for(y = h; y > 0; y--) {
        for(x = w; x > 0; x--) {
            HAL_SPI_Transmit(&ST7735_SPI_PORT, data, sizeof(data), HAL_MAX_DELAY);
 8000bdc:	4f0c      	ldr	r7, [pc, #48]	; (8000c10 <ST7735_FillRectangle.part.1+0x90>)
    for(y = h; y > 0; y--) {
 8000bde:	b994      	cbnz	r4, 8000c06 <ST7735_FillRectangle.part.1+0x86>
        }
    }

    ST7735_Unselect();
 8000be0:	f7ff ffc6 	bl	8000b70 <ST7735_Unselect>
}
 8000be4:	b002      	add	sp, #8
 8000be6:	e8bd 81f0 	ldmia.w	sp!, {r4, r5, r6, r7, r8, pc}
            HAL_SPI_Transmit(&ST7735_SPI_PORT, data, sizeof(data), HAL_MAX_DELAY);
 8000bea:	f04f 33ff 	mov.w	r3, #4294967295
 8000bee:	2202      	movs	r2, #2
 8000bf0:	a901      	add	r1, sp, #4
 8000bf2:	4638      	mov	r0, r7
 8000bf4:	f001 f8ae 	bl	8001d54 <HAL_SPI_Transmit>
        for(x = w; x > 0; x--) {
 8000bf8:	3e01      	subs	r6, #1
 8000bfa:	b2b6      	uxth	r6, r6
 8000bfc:	2e00      	cmp	r6, #0
 8000bfe:	d1f4      	bne.n	8000bea <ST7735_FillRectangle.part.1+0x6a>
    for(y = h; y > 0; y--) {
 8000c00:	3c01      	subs	r4, #1
 8000c02:	b2a4      	uxth	r4, r4
 8000c04:	e7eb      	b.n	8000bde <ST7735_FillRectangle.part.1+0x5e>
        for(x = w; x > 0; x--) {
 8000c06:	462e      	mov	r6, r5
 8000c08:	e7f8      	b.n	8000bfc <ST7735_FillRectangle.part.1+0x7c>
 8000c0a:	bf00      	nop
 8000c0c:	40010800 	.word	0x40010800
 8000c10:	200000a4 	.word	0x200000a4

08000c14 <ST7735_Init>:
void ST7735_Init() {
 8000c14:	b510      	push	{r4, lr}
    HAL_GPIO_WritePin(ST7735_RES_GPIO_Port, ST7735_RES_Pin, GPIO_PIN_RESET);
 8000c16:	4c0f      	ldr	r4, [pc, #60]	; (8000c54 <ST7735_Init+0x40>)
    ST7735_Select();
 8000c18:	f7ff ff26 	bl	8000a68 <ST7735_Select>
    HAL_GPIO_WritePin(ST7735_RES_GPIO_Port, ST7735_RES_Pin, GPIO_PIN_RESET);
 8000c1c:	2200      	movs	r2, #0
 8000c1e:	f44f 7100 	mov.w	r1, #512	; 0x200
 8000c22:	4620      	mov	r0, r4
 8000c24:	f000 fd86 	bl	8001734 <HAL_GPIO_WritePin>
    HAL_Delay(5);
 8000c28:	2005      	movs	r0, #5
 8000c2a:	f000 fb5d 	bl	80012e8 <HAL_Delay>
    HAL_GPIO_WritePin(ST7735_RES_GPIO_Port, ST7735_RES_Pin, GPIO_PIN_SET);
 8000c2e:	2201      	movs	r2, #1
 8000c30:	f44f 7100 	mov.w	r1, #512	; 0x200
 8000c34:	4620      	mov	r0, r4
 8000c36:	f000 fd7d 	bl	8001734 <HAL_GPIO_WritePin>
    ST7735_ExecuteCommandList(init_cmds1);
 8000c3a:	4807      	ldr	r0, [pc, #28]	; (8000c58 <ST7735_Init+0x44>)
 8000c3c:	f7ff ff4a 	bl	8000ad4 <ST7735_ExecuteCommandList>
    ST7735_ExecuteCommandList(init_cmds2);
 8000c40:	4806      	ldr	r0, [pc, #24]	; (8000c5c <ST7735_Init+0x48>)
 8000c42:	f7ff ff47 	bl	8000ad4 <ST7735_ExecuteCommandList>
    ST7735_ExecuteCommandList(init_cmds3);
 8000c46:	4806      	ldr	r0, [pc, #24]	; (8000c60 <ST7735_Init+0x4c>)
 8000c48:	f7ff ff44 	bl	8000ad4 <ST7735_ExecuteCommandList>
}
 8000c4c:	e8bd 4010 	ldmia.w	sp!, {r4, lr}
    ST7735_Unselect();
 8000c50:	f7ff bf8e 	b.w	8000b70 <ST7735_Unselect>
 8000c54:	40010800 	.word	0x40010800
 8000c58:	0800cf62 	.word	0x0800cf62
 8000c5c:	0800cf9d 	.word	0x0800cf9d
 8000c60:	0800cfaa 	.word	0x0800cfaa

08000c64 <ST7735_FillRectangle>:
void ST7735_FillRectangle(uint16_t x, uint16_t y, uint16_t w, uint16_t h, uint16_t color) {
 8000c64:	b430      	push	{r4, r5}
    if((x >= ST7735_WIDTH) || (y >= ST7735_HEIGHT)) return;
 8000c66:	287f      	cmp	r0, #127	; 0x7f
void ST7735_FillRectangle(uint16_t x, uint16_t y, uint16_t w, uint16_t h, uint16_t color) {
 8000c68:	f8bd 4008 	ldrh.w	r4, [sp, #8]
    if((x >= ST7735_WIDTH) || (y >= ST7735_HEIGHT)) return;
 8000c6c:	d805      	bhi.n	8000c7a <ST7735_FillRectangle+0x16>
 8000c6e:	297f      	cmp	r1, #127	; 0x7f
 8000c70:	d803      	bhi.n	8000c7a <ST7735_FillRectangle+0x16>
 8000c72:	9402      	str	r4, [sp, #8]
}
 8000c74:	bc30      	pop	{r4, r5}
 8000c76:	f7ff bf83 	b.w	8000b80 <ST7735_FillRectangle.part.1>
 8000c7a:	bc30      	pop	{r4, r5}
 8000c7c:	4770      	bx	lr

08000c7e <ST7735_DrawImage>:

void ST7735_FillScreen(uint16_t color) {
    ST7735_FillRectangle(0, 0, ST7735_WIDTH, ST7735_HEIGHT, color);
}

void ST7735_DrawImage(uint16_t x, uint16_t y, uint16_t w, uint16_t h, const uint16_t* data) {
 8000c7e:	e92d 41f0 	stmdb	sp!, {r4, r5, r6, r7, r8, lr}
    if((x >= ST7735_WIDTH) || (y >= ST7735_HEIGHT)) return;
 8000c82:	287f      	cmp	r0, #127	; 0x7f
void ST7735_DrawImage(uint16_t x, uint16_t y, uint16_t w, uint16_t h, const uint16_t* data) {
 8000c84:	4604      	mov	r4, r0
 8000c86:	460d      	mov	r5, r1
 8000c88:	4617      	mov	r7, r2
 8000c8a:	461e      	mov	r6, r3
 8000c8c:	f8dd 8018 	ldr.w	r8, [sp, #24]
    if((x >= ST7735_WIDTH) || (y >= ST7735_HEIGHT)) return;
 8000c90:	d81c      	bhi.n	8000ccc <ST7735_DrawImage+0x4e>
 8000c92:	297f      	cmp	r1, #127	; 0x7f
 8000c94:	d81a      	bhi.n	8000ccc <ST7735_DrawImage+0x4e>
    if((x + w - 1) >= ST7735_WIDTH) return;
 8000c96:	1883      	adds	r3, r0, r2
 8000c98:	2b80      	cmp	r3, #128	; 0x80
 8000c9a:	dc17      	bgt.n	8000ccc <ST7735_DrawImage+0x4e>
    if((y + h - 1) >= ST7735_HEIGHT) return;
 8000c9c:	198b      	adds	r3, r1, r6
 8000c9e:	2b80      	cmp	r3, #128	; 0x80
 8000ca0:	dc14      	bgt.n	8000ccc <ST7735_DrawImage+0x4e>

    ST7735_Select();
 8000ca2:	f7ff fee1 	bl	8000a68 <ST7735_Select>
    ST7735_SetAddressWindow(x, y, x+w-1, y+h-1);
 8000ca6:	b2e0      	uxtb	r0, r4
 8000ca8:	b2e9      	uxtb	r1, r5
 8000caa:	1e73      	subs	r3, r6, #1
 8000cac:	1e7a      	subs	r2, r7, #1
 8000cae:	440b      	add	r3, r1
 8000cb0:	4402      	add	r2, r0
 8000cb2:	b2db      	uxtb	r3, r3
 8000cb4:	b2d2      	uxtb	r2, r2
 8000cb6:	f7ff ff30 	bl	8000b1a <ST7735_SetAddressWindow>
    ST7735_WriteData((uint8_t*)data, sizeof(uint16_t)*w*h);
 8000cba:	0071      	lsls	r1, r6, #1
 8000cbc:	4379      	muls	r1, r7
 8000cbe:	4640      	mov	r0, r8
 8000cc0:	f7ff fef2 	bl	8000aa8 <ST7735_WriteData>
    ST7735_Unselect();
}
 8000cc4:	e8bd 41f0 	ldmia.w	sp!, {r4, r5, r6, r7, r8, lr}
    ST7735_Unselect();
 8000cc8:	f7ff bf52 	b.w	8000b70 <ST7735_Unselect>
}
 8000ccc:	e8bd 81f0 	ldmia.w	sp!, {r4, r5, r6, r7, r8, pc}

08000cd0 <HAL_MspInit>:
{
  /* USER CODE BEGIN MspInit 0 */

  /* USER CODE END MspInit 0 */

  __HAL_RCC_AFIO_CLK_ENABLE();
 8000cd0:	4b0e      	ldr	r3, [pc, #56]	; (8000d0c <HAL_MspInit+0x3c>)
{
 8000cd2:	b082      	sub	sp, #8
  __HAL_RCC_AFIO_CLK_ENABLE();
 8000cd4:	699a      	ldr	r2, [r3, #24]
 8000cd6:	f042 0201 	orr.w	r2, r2, #1
 8000cda:	619a      	str	r2, [r3, #24]
 8000cdc:	699a      	ldr	r2, [r3, #24]
 8000cde:	f002 0201 	and.w	r2, r2, #1
 8000ce2:	9200      	str	r2, [sp, #0]
 8000ce4:	9a00      	ldr	r2, [sp, #0]
  __HAL_RCC_PWR_CLK_ENABLE();
 8000ce6:	69da      	ldr	r2, [r3, #28]
 8000ce8:	f042 5280 	orr.w	r2, r2, #268435456	; 0x10000000
 8000cec:	61da      	str	r2, [r3, #28]
 8000cee:	69db      	ldr	r3, [r3, #28]

  /* System interrupt init*/

  /** NOJTAG: JTAG-DP Disabled and SW-DP Enabled
  */
  __HAL_AFIO_REMAP_SWJ_NOJTAG();
 8000cf0:	4a07      	ldr	r2, [pc, #28]	; (8000d10 <HAL_MspInit+0x40>)
  __HAL_RCC_PWR_CLK_ENABLE();
 8000cf2:	f003 5380 	and.w	r3, r3, #268435456	; 0x10000000
 8000cf6:	9301      	str	r3, [sp, #4]
 8000cf8:	9b01      	ldr	r3, [sp, #4]
  __HAL_AFIO_REMAP_SWJ_NOJTAG();
 8000cfa:	6853      	ldr	r3, [r2, #4]
 8000cfc:	f023 63e0 	bic.w	r3, r3, #117440512	; 0x7000000
 8000d00:	f043 7300 	orr.w	r3, r3, #33554432	; 0x2000000
 8000d04:	6053      	str	r3, [r2, #4]

  /* USER CODE BEGIN MspInit 1 */

  /* USER CODE END MspInit 1 */
}
 8000d06:	b002      	add	sp, #8
 8000d08:	4770      	bx	lr
 8000d0a:	bf00      	nop
 8000d0c:	40021000 	.word	0x40021000
 8000d10:	40010000 	.word	0x40010000

08000d14 <HAL_SPI_MspInit>:
* This function configures the hardware resources used in this example
* @param hspi: SPI handle pointer
* @retval None
*/
void HAL_SPI_MspInit(SPI_HandleTypeDef* hspi)
{
 8000d14:	b5f0      	push	{r4, r5, r6, r7, lr}
  GPIO_InitTypeDef GPIO_InitStruct = {0};
 8000d16:	2710      	movs	r7, #16
{
 8000d18:	4605      	mov	r5, r0
 8000d1a:	b089      	sub	sp, #36	; 0x24
  GPIO_InitTypeDef GPIO_InitStruct = {0};
 8000d1c:	463a      	mov	r2, r7
 8000d1e:	2100      	movs	r1, #0
 8000d20:	eb0d 0007 	add.w	r0, sp, r7
 8000d24:	f001 fc26 	bl	8002574 <memset>
  if(hspi->Instance==SPI1)
 8000d28:	682b      	ldr	r3, [r5, #0]
 8000d2a:	4a4b      	ldr	r2, [pc, #300]	; (8000e58 <HAL_SPI_MspInit+0x144>)
 8000d2c:	4293      	cmp	r3, r2
 8000d2e:	d15c      	bne.n	8000dea <HAL_SPI_MspInit+0xd6>
  {
  /* USER CODE BEGIN SPI1_MspInit 0 */

  /* USER CODE END SPI1_MspInit 0 */
    /* Peripheral clock enable */
    __HAL_RCC_SPI1_CLK_ENABLE();
 8000d30:	4b4a      	ldr	r3, [pc, #296]	; (8000e5c <HAL_SPI_MspInit+0x148>)
    PB3     ------> SPI1_SCK
    PB4     ------> SPI1_MISO
    PB5     ------> SPI1_MOSI
    */
    GPIO_InitStruct.Pin = GPIO_PIN_3|GPIO_PIN_5;
    GPIO_InitStruct.Mode = GPIO_MODE_AF_PP;
 8000d32:	2028      	movs	r0, #40	; 0x28
    __HAL_RCC_SPI1_CLK_ENABLE();
 8000d34:	699a      	ldr	r2, [r3, #24]
    GPIO_InitStruct.Speed = GPIO_SPEED_FREQ_HIGH;
    HAL_GPIO_Init(GPIOB, &GPIO_InitStruct);

    GPIO_InitStruct.Pin = GPIO_PIN_4;
    GPIO_InitStruct.Mode = GPIO_MODE_INPUT;
 8000d36:	2600      	movs	r6, #0
    __HAL_RCC_SPI1_CLK_ENABLE();
 8000d38:	f442 5280 	orr.w	r2, r2, #4096	; 0x1000
 8000d3c:	619a      	str	r2, [r3, #24]
 8000d3e:	699a      	ldr	r2, [r3, #24]
    HAL_GPIO_Init(GPIOB, &GPIO_InitStruct);
 8000d40:	eb0d 0107 	add.w	r1, sp, r7
    __HAL_RCC_SPI1_CLK_ENABLE();
 8000d44:	f402 5280 	and.w	r2, r2, #4096	; 0x1000
 8000d48:	9200      	str	r2, [sp, #0]
 8000d4a:	9a00      	ldr	r2, [sp, #0]
    __HAL_RCC_GPIOB_CLK_ENABLE();
 8000d4c:	699a      	ldr	r2, [r3, #24]

    __HAL_AFIO_REMAP_SPI1_ENABLE();

    /* SPI1 DMA Init */
    /* SPI1_RX Init */
    hdma_spi1_rx.Instance = DMA1_Channel2;
 8000d4e:	4c44      	ldr	r4, [pc, #272]	; (8000e60 <HAL_SPI_MspInit+0x14c>)
    __HAL_RCC_GPIOB_CLK_ENABLE();
 8000d50:	f042 0208 	orr.w	r2, r2, #8
 8000d54:	619a      	str	r2, [r3, #24]
 8000d56:	699b      	ldr	r3, [r3, #24]
 8000d58:	f003 0308 	and.w	r3, r3, #8
 8000d5c:	9301      	str	r3, [sp, #4]
 8000d5e:	9b01      	ldr	r3, [sp, #4]
    GPIO_InitStruct.Mode = GPIO_MODE_AF_PP;
 8000d60:	2302      	movs	r3, #2
 8000d62:	e9cd 0304 	strd	r0, r3, [sp, #16]
    GPIO_InitStruct.Speed = GPIO_SPEED_FREQ_HIGH;
 8000d66:	2303      	movs	r3, #3
    HAL_GPIO_Init(GPIOB, &GPIO_InitStruct);
 8000d68:	483e      	ldr	r0, [pc, #248]	; (8000e64 <HAL_SPI_MspInit+0x150>)
    GPIO_InitStruct.Speed = GPIO_SPEED_FREQ_HIGH;
 8000d6a:	9307      	str	r3, [sp, #28]
    HAL_GPIO_Init(GPIOB, &GPIO_InitStruct);
 8000d6c:	f000 fbfc 	bl	8001568 <HAL_GPIO_Init>
    HAL_GPIO_Init(GPIOB, &GPIO_InitStruct);
 8000d70:	483c      	ldr	r0, [pc, #240]	; (8000e64 <HAL_SPI_MspInit+0x150>)
 8000d72:	eb0d 0107 	add.w	r1, sp, r7
    GPIO_InitStruct.Pin = GPIO_PIN_4;
 8000d76:	9704      	str	r7, [sp, #16]
    GPIO_InitStruct.Pull = GPIO_NOPULL;
 8000d78:	e9cd 6605 	strd	r6, r6, [sp, #20]
    HAL_GPIO_Init(GPIOB, &GPIO_InitStruct);
 8000d7c:	f000 fbf4 	bl	8001568 <HAL_GPIO_Init>
    __HAL_AFIO_REMAP_SPI1_ENABLE();
 8000d80:	4a39      	ldr	r2, [pc, #228]	; (8000e68 <HAL_SPI_MspInit+0x154>)
    hdma_spi1_rx.Init.MemInc = DMA_MINC_ENABLE;
    hdma_spi1_rx.Init.PeriphDataAlignment = DMA_PDATAALIGN_BYTE;
    hdma_spi1_rx.Init.MemDataAlignment = DMA_MDATAALIGN_BYTE;
    hdma_spi1_rx.Init.Mode = DMA_NORMAL;
    hdma_spi1_rx.Init.Priority = DMA_PRIORITY_MEDIUM;
    if (HAL_DMA_Init(&hdma_spi1_rx) != HAL_OK)
 8000d82:	4620      	mov	r0, r4
    __HAL_AFIO_REMAP_SPI1_ENABLE();
 8000d84:	6853      	ldr	r3, [r2, #4]
 8000d86:	f043 63e0 	orr.w	r3, r3, #117440512	; 0x7000000
 8000d8a:	f043 0301 	orr.w	r3, r3, #1
 8000d8e:	6053      	str	r3, [r2, #4]
    hdma_spi1_rx.Instance = DMA1_Channel2;
 8000d90:	4b36      	ldr	r3, [pc, #216]	; (8000e6c <HAL_SPI_MspInit+0x158>)
    hdma_spi1_rx.Init.PeriphInc = DMA_PINC_DISABLE;
 8000d92:	60a6      	str	r6, [r4, #8]
    hdma_spi1_rx.Init.Direction = DMA_PERIPH_TO_MEMORY;
 8000d94:	e9c4 3600 	strd	r3, r6, [r4]
    hdma_spi1_rx.Init.MemInc = DMA_MINC_ENABLE;
 8000d98:	2380      	movs	r3, #128	; 0x80
    hdma_spi1_rx.Init.PeriphDataAlignment = DMA_PDATAALIGN_BYTE;
 8000d9a:	e9c4 3603 	strd	r3, r6, [r4, #12]
    hdma_spi1_rx.Init.Priority = DMA_PRIORITY_MEDIUM;
 8000d9e:	f44f 5380 	mov.w	r3, #4096	; 0x1000
    hdma_spi1_rx.Init.Mode = DMA_NORMAL;
 8000da2:	e9c4 6605 	strd	r6, r6, [r4, #20]
    hdma_spi1_rx.Init.Priority = DMA_PRIORITY_MEDIUM;
 8000da6:	61e3      	str	r3, [r4, #28]
    if (HAL_DMA_Init(&hdma_spi1_rx) != HAL_OK)
 8000da8:	f000 fb1a 	bl	80013e0 <HAL_DMA_Init>
 8000dac:	b108      	cbz	r0, 8000db2 <HAL_SPI_MspInit+0x9e>
    {
      Error_Handler();
 8000dae:	f7ff fe59 	bl	8000a64 <Error_Handler>

    __HAL_LINKDMA(hspi,hdmarx,hdma_spi1_rx);

    /* SPI1_TX Init */
    hdma_spi1_tx.Instance = DMA1_Channel3;
    hdma_spi1_tx.Init.Direction = DMA_MEMORY_TO_PERIPH;
 8000db2:	2310      	movs	r3, #16
    __HAL_LINKDMA(hspi,hdmarx,hdma_spi1_rx);
 8000db4:	64ec      	str	r4, [r5, #76]	; 0x4c
 8000db6:	6265      	str	r5, [r4, #36]	; 0x24
    hdma_spi1_tx.Init.Direction = DMA_MEMORY_TO_PERIPH;
 8000db8:	492d      	ldr	r1, [pc, #180]	; (8000e70 <HAL_SPI_MspInit+0x15c>)
    hdma_spi1_tx.Instance = DMA1_Channel3;
 8000dba:	4c2e      	ldr	r4, [pc, #184]	; (8000e74 <HAL_SPI_MspInit+0x160>)
    hdma_spi1_tx.Init.PeriphInc = DMA_PINC_DISABLE;
    hdma_spi1_tx.Init.MemInc = DMA_MINC_ENABLE;
 8000dbc:	2280      	movs	r2, #128	; 0x80
    hdma_spi1_tx.Init.Direction = DMA_MEMORY_TO_PERIPH;
 8000dbe:	e9c4 1300 	strd	r1, r3, [r4]
    hdma_spi1_tx.Init.MemInc = DMA_MINC_ENABLE;
 8000dc2:	2300      	movs	r3, #0
 8000dc4:	e9c4 3202 	strd	r3, r2, [r4, #8]
    hdma_spi1_tx.Init.PeriphDataAlignment = DMA_PDATAALIGN_BYTE;
    hdma_spi1_tx.Init.MemDataAlignment = DMA_MDATAALIGN_BYTE;
 8000dc8:	e9c4 3304 	strd	r3, r3, [r4, #16]
    hdma_spi1_tx.Init.Mode = DMA_CIRCULAR;
 8000dcc:	2320      	movs	r3, #32
 8000dce:	61a3      	str	r3, [r4, #24]
    hdma_spi2_tx.Init.PeriphInc = DMA_PINC_DISABLE;
    hdma_spi2_tx.Init.MemInc = DMA_MINC_ENABLE;
    hdma_spi2_tx.Init.PeriphDataAlignment = DMA_PDATAALIGN_BYTE;
    hdma_spi2_tx.Init.MemDataAlignment = DMA_MDATAALIGN_BYTE;
    hdma_spi2_tx.Init.Mode = DMA_NORMAL;
    hdma_spi2_tx.Init.Priority = DMA_PRIORITY_MEDIUM;
 8000dd0:	f44f 5380 	mov.w	r3, #4096	; 0x1000
    if (HAL_DMA_Init(&hdma_spi2_tx) != HAL_OK)
 8000dd4:	4620      	mov	r0, r4
    hdma_spi2_tx.Init.Priority = DMA_PRIORITY_MEDIUM;
 8000dd6:	61e3      	str	r3, [r4, #28]
    if (HAL_DMA_Init(&hdma_spi2_tx) != HAL_OK)
 8000dd8:	f000 fb02 	bl	80013e0 <HAL_DMA_Init>
 8000ddc:	b108      	cbz	r0, 8000de2 <HAL_SPI_MspInit+0xce>
    {
      Error_Handler();
 8000dde:	f7ff fe41 	bl	8000a64 <Error_Handler>
    }

    __HAL_LINKDMA(hspi,hdmatx,hdma_spi2_tx);
 8000de2:	64ac      	str	r4, [r5, #72]	; 0x48
 8000de4:	6265      	str	r5, [r4, #36]	; 0x24
  /* USER CODE BEGIN SPI2_MspInit 1 */

  /* USER CODE END SPI2_MspInit 1 */
  }

}
 8000de6:	b009      	add	sp, #36	; 0x24
 8000de8:	bdf0      	pop	{r4, r5, r6, r7, pc}
  else if(hspi->Instance==SPI2)
 8000dea:	4a23      	ldr	r2, [pc, #140]	; (8000e78 <HAL_SPI_MspInit+0x164>)
 8000dec:	4293      	cmp	r3, r2
 8000dee:	d1fa      	bne.n	8000de6 <HAL_SPI_MspInit+0xd2>
    __HAL_RCC_SPI2_CLK_ENABLE();
 8000df0:	4b1a      	ldr	r3, [pc, #104]	; (8000e5c <HAL_SPI_MspInit+0x148>)
    HAL_GPIO_Init(GPIOB, &GPIO_InitStruct);
 8000df2:	a904      	add	r1, sp, #16
    __HAL_RCC_SPI2_CLK_ENABLE();
 8000df4:	69da      	ldr	r2, [r3, #28]
    HAL_GPIO_Init(GPIOB, &GPIO_InitStruct);
 8000df6:	481b      	ldr	r0, [pc, #108]	; (8000e64 <HAL_SPI_MspInit+0x150>)
    __HAL_RCC_SPI2_CLK_ENABLE();
 8000df8:	f442 4280 	orr.w	r2, r2, #16384	; 0x4000
 8000dfc:	61da      	str	r2, [r3, #28]
 8000dfe:	69da      	ldr	r2, [r3, #28]
    GPIO_InitStruct.Mode = GPIO_MODE_INPUT;
 8000e00:	2600      	movs	r6, #0
    __HAL_RCC_SPI2_CLK_ENABLE();
 8000e02:	f402 4280 	and.w	r2, r2, #16384	; 0x4000
 8000e06:	9202      	str	r2, [sp, #8]
 8000e08:	9a02      	ldr	r2, [sp, #8]
    __HAL_RCC_GPIOB_CLK_ENABLE();
 8000e0a:	699a      	ldr	r2, [r3, #24]
    hdma_spi2_tx.Instance = DMA1_Channel5;
 8000e0c:	4c1b      	ldr	r4, [pc, #108]	; (8000e7c <HAL_SPI_MspInit+0x168>)
    __HAL_RCC_GPIOB_CLK_ENABLE();
 8000e0e:	f042 0208 	orr.w	r2, r2, #8
 8000e12:	619a      	str	r2, [r3, #24]
 8000e14:	699b      	ldr	r3, [r3, #24]
    GPIO_InitStruct.Mode = GPIO_MODE_AF_PP;
 8000e16:	f44f 4220 	mov.w	r2, #40960	; 0xa000
    __HAL_RCC_GPIOB_CLK_ENABLE();
 8000e1a:	f003 0308 	and.w	r3, r3, #8
 8000e1e:	9303      	str	r3, [sp, #12]
 8000e20:	9b03      	ldr	r3, [sp, #12]
    GPIO_InitStruct.Mode = GPIO_MODE_AF_PP;
 8000e22:	2302      	movs	r3, #2
 8000e24:	e9cd 2304 	strd	r2, r3, [sp, #16]
    GPIO_InitStruct.Speed = GPIO_SPEED_FREQ_HIGH;
 8000e28:	2303      	movs	r3, #3
 8000e2a:	9307      	str	r3, [sp, #28]
    HAL_GPIO_Init(GPIOB, &GPIO_InitStruct);
 8000e2c:	f000 fb9c 	bl	8001568 <HAL_GPIO_Init>
    GPIO_InitStruct.Mode = GPIO_MODE_INPUT;
 8000e30:	f44f 4380 	mov.w	r3, #16384	; 0x4000
    HAL_GPIO_Init(GPIOB, &GPIO_InitStruct);
 8000e34:	a904      	add	r1, sp, #16
 8000e36:	480b      	ldr	r0, [pc, #44]	; (8000e64 <HAL_SPI_MspInit+0x150>)
    GPIO_InitStruct.Mode = GPIO_MODE_INPUT;
 8000e38:	e9cd 3604 	strd	r3, r6, [sp, #16]
    GPIO_InitStruct.Pull = GPIO_NOPULL;
 8000e3c:	9606      	str	r6, [sp, #24]
    HAL_GPIO_Init(GPIOB, &GPIO_InitStruct);
 8000e3e:	f000 fb93 	bl	8001568 <HAL_GPIO_Init>
    hdma_spi2_tx.Instance = DMA1_Channel5;
 8000e42:	4b0f      	ldr	r3, [pc, #60]	; (8000e80 <HAL_SPI_MspInit+0x16c>)
    hdma_spi2_tx.Init.PeriphInc = DMA_PINC_DISABLE;
 8000e44:	60a6      	str	r6, [r4, #8]
    hdma_spi2_tx.Init.Direction = DMA_MEMORY_TO_PERIPH;
 8000e46:	e9c4 3700 	strd	r3, r7, [r4]
    hdma_spi2_tx.Init.MemInc = DMA_MINC_ENABLE;
 8000e4a:	2380      	movs	r3, #128	; 0x80
    hdma_spi2_tx.Init.Mode = DMA_NORMAL;
 8000e4c:	e9c4 6605 	strd	r6, r6, [r4, #20]
    hdma_spi2_tx.Init.PeriphDataAlignment = DMA_PDATAALIGN_BYTE;
 8000e50:	e9c4 3603 	strd	r3, r6, [r4, #12]
 8000e54:	e7bc      	b.n	8000dd0 <HAL_SPI_MspInit+0xbc>
 8000e56:	bf00      	nop
 8000e58:	40013000 	.word	0x40013000
 8000e5c:	40021000 	.word	0x40021000
 8000e60:	20000430 	.word	0x20000430
 8000e64:	40010c00 	.word	0x40010c00
 8000e68:	40010000 	.word	0x40010000
 8000e6c:	4002001c 	.word	0x4002001c
 8000e70:	40020030 	.word	0x40020030
 8000e74:	200004b8 	.word	0x200004b8
 8000e78:	40003800 	.word	0x40003800
 8000e7c:	20000474 	.word	0x20000474
 8000e80:	40020058 	.word	0x40020058

08000e84 <HAL_TIM_Base_MspInit>:
* This function configures the hardware resources used in this example
* @param htim_base: TIM_Base handle pointer
* @retval None
*/
void HAL_TIM_Base_MspInit(TIM_HandleTypeDef* htim_base)
{
 8000e84:	b510      	push	{r4, lr}
 8000e86:	4604      	mov	r4, r0
 8000e88:	b08a      	sub	sp, #40	; 0x28
  GPIO_InitTypeDef GPIO_InitStruct = {0};
 8000e8a:	2210      	movs	r2, #16
 8000e8c:	2100      	movs	r1, #0
 8000e8e:	a806      	add	r0, sp, #24
 8000e90:	f001 fb70 	bl	8002574 <memset>
  if(htim_base->Instance==TIM1)
 8000e94:	6823      	ldr	r3, [r4, #0]
 8000e96:	4a34      	ldr	r2, [pc, #208]	; (8000f68 <HAL_TIM_Base_MspInit+0xe4>)
 8000e98:	4293      	cmp	r3, r2
 8000e9a:	d112      	bne.n	8000ec2 <HAL_TIM_Base_MspInit+0x3e>
  {
  /* USER CODE BEGIN TIM1_MspInit 0 */

  /* USER CODE END TIM1_MspInit 0 */
    /* Peripheral clock enable */
    __HAL_RCC_TIM1_CLK_ENABLE();
 8000e9c:	4b33      	ldr	r3, [pc, #204]	; (8000f6c <HAL_TIM_Base_MspInit+0xe8>)
    /* TIM1 interrupt Init */
    HAL_NVIC_SetPriority(TIM1_UP_IRQn, 0, 0);
 8000e9e:	2019      	movs	r0, #25
    __HAL_RCC_TIM1_CLK_ENABLE();
 8000ea0:	699a      	ldr	r2, [r3, #24]
 8000ea2:	f442 6200 	orr.w	r2, r2, #2048	; 0x800
 8000ea6:	619a      	str	r2, [r3, #24]
    HAL_NVIC_SetPriority(TIM1_UP_IRQn, 0, 0);
 8000ea8:	2200      	movs	r2, #0
    __HAL_RCC_TIM1_CLK_ENABLE();
 8000eaa:	699b      	ldr	r3, [r3, #24]
    HAL_NVIC_SetPriority(TIM1_UP_IRQn, 0, 0);
 8000eac:	4611      	mov	r1, r2
    __HAL_RCC_TIM1_CLK_ENABLE();
 8000eae:	f403 6300 	and.w	r3, r3, #2048	; 0x800
 8000eb2:	9301      	str	r3, [sp, #4]
 8000eb4:	9b01      	ldr	r3, [sp, #4]
    HAL_NVIC_SetPriority(TIM1_UP_IRQn, 0, 0);
 8000eb6:	f000 fa3b 	bl	8001330 <HAL_NVIC_SetPriority>
    HAL_NVIC_EnableIRQ(TIM1_UP_IRQn);
 8000eba:	2019      	movs	r0, #25
  /* USER CODE END TIM4_MspInit 0 */
    /* Peripheral clock enable */
    __HAL_RCC_TIM4_CLK_ENABLE();
    /* TIM4 interrupt Init */
    HAL_NVIC_SetPriority(TIM4_IRQn, 0, 0);
    HAL_NVIC_EnableIRQ(TIM4_IRQn);
 8000ebc:	f000 fa6c 	bl	8001398 <HAL_NVIC_EnableIRQ>
  /* USER CODE BEGIN TIM4_MspInit 1 */

  /* USER CODE END TIM4_MspInit 1 */
  }

}
 8000ec0:	e027      	b.n	8000f12 <HAL_TIM_Base_MspInit+0x8e>
  else if(htim_base->Instance==TIM2)
 8000ec2:	f1b3 4f80 	cmp.w	r3, #1073741824	; 0x40000000
 8000ec6:	d126      	bne.n	8000f16 <HAL_TIM_Base_MspInit+0x92>
    __HAL_RCC_TIM2_CLK_ENABLE();
 8000ec8:	f503 3304 	add.w	r3, r3, #135168	; 0x21000
 8000ecc:	69da      	ldr	r2, [r3, #28]
    HAL_GPIO_Init(GPIOA, &GPIO_InitStruct);
 8000ece:	a906      	add	r1, sp, #24
    __HAL_RCC_TIM2_CLK_ENABLE();
 8000ed0:	f042 0201 	orr.w	r2, r2, #1
 8000ed4:	61da      	str	r2, [r3, #28]
 8000ed6:	69da      	ldr	r2, [r3, #28]
    HAL_GPIO_Init(GPIOA, &GPIO_InitStruct);
 8000ed8:	4825      	ldr	r0, [pc, #148]	; (8000f70 <HAL_TIM_Base_MspInit+0xec>)
    __HAL_RCC_TIM2_CLK_ENABLE();
 8000eda:	f002 0201 	and.w	r2, r2, #1
 8000ede:	9202      	str	r2, [sp, #8]
 8000ee0:	9a02      	ldr	r2, [sp, #8]
    __HAL_RCC_GPIOA_CLK_ENABLE();
 8000ee2:	699a      	ldr	r2, [r3, #24]
 8000ee4:	f042 0204 	orr.w	r2, r2, #4
 8000ee8:	619a      	str	r2, [r3, #24]
 8000eea:	699b      	ldr	r3, [r3, #24]
    GPIO_InitStruct.Mode = GPIO_MODE_AF_PP;
 8000eec:	f44f 4200 	mov.w	r2, #32768	; 0x8000
    __HAL_RCC_GPIOA_CLK_ENABLE();
 8000ef0:	f003 0304 	and.w	r3, r3, #4
 8000ef4:	9303      	str	r3, [sp, #12]
 8000ef6:	9b03      	ldr	r3, [sp, #12]
    GPIO_InitStruct.Mode = GPIO_MODE_AF_PP;
 8000ef8:	2302      	movs	r3, #2
 8000efa:	e9cd 2306 	strd	r2, r3, [sp, #24]
    GPIO_InitStruct.Speed = GPIO_SPEED_FREQ_LOW;
 8000efe:	9309      	str	r3, [sp, #36]	; 0x24
    HAL_GPIO_Init(GPIOA, &GPIO_InitStruct);
 8000f00:	f000 fb32 	bl	8001568 <HAL_GPIO_Init>
    __HAL_AFIO_REMAP_TIM2_ENABLE();
 8000f04:	4a1b      	ldr	r2, [pc, #108]	; (8000f74 <HAL_TIM_Base_MspInit+0xf0>)
 8000f06:	6853      	ldr	r3, [r2, #4]
 8000f08:	f043 63e0 	orr.w	r3, r3, #117440512	; 0x7000000
 8000f0c:	f443 7340 	orr.w	r3, r3, #768	; 0x300
 8000f10:	6053      	str	r3, [r2, #4]
}
 8000f12:	b00a      	add	sp, #40	; 0x28
 8000f14:	bd10      	pop	{r4, pc}
  else if(htim_base->Instance==TIM3)
 8000f16:	4a18      	ldr	r2, [pc, #96]	; (8000f78 <HAL_TIM_Base_MspInit+0xf4>)
 8000f18:	4293      	cmp	r3, r2
 8000f1a:	d110      	bne.n	8000f3e <HAL_TIM_Base_MspInit+0xba>
    __HAL_RCC_TIM3_CLK_ENABLE();
 8000f1c:	4b13      	ldr	r3, [pc, #76]	; (8000f6c <HAL_TIM_Base_MspInit+0xe8>)
    HAL_NVIC_SetPriority(TIM3_IRQn, 0, 0);
 8000f1e:	201d      	movs	r0, #29
    __HAL_RCC_TIM3_CLK_ENABLE();
 8000f20:	69da      	ldr	r2, [r3, #28]
 8000f22:	f042 0202 	orr.w	r2, r2, #2
 8000f26:	61da      	str	r2, [r3, #28]
    HAL_NVIC_SetPriority(TIM3_IRQn, 0, 0);
 8000f28:	2200      	movs	r2, #0
    __HAL_RCC_TIM3_CLK_ENABLE();
 8000f2a:	69db      	ldr	r3, [r3, #28]
    HAL_NVIC_SetPriority(TIM3_IRQn, 0, 0);
 8000f2c:	4611      	mov	r1, r2
    __HAL_RCC_TIM3_CLK_ENABLE();
 8000f2e:	f003 0302 	and.w	r3, r3, #2
 8000f32:	9304      	str	r3, [sp, #16]
 8000f34:	9b04      	ldr	r3, [sp, #16]
    HAL_NVIC_SetPriority(TIM3_IRQn, 0, 0);
 8000f36:	f000 f9fb 	bl	8001330 <HAL_NVIC_SetPriority>
    HAL_NVIC_EnableIRQ(TIM3_IRQn);
 8000f3a:	201d      	movs	r0, #29
 8000f3c:	e7be      	b.n	8000ebc <HAL_TIM_Base_MspInit+0x38>
  else if(htim_base->Instance==TIM4)
 8000f3e:	4a0f      	ldr	r2, [pc, #60]	; (8000f7c <HAL_TIM_Base_MspInit+0xf8>)
 8000f40:	4293      	cmp	r3, r2
 8000f42:	d1e6      	bne.n	8000f12 <HAL_TIM_Base_MspInit+0x8e>
    __HAL_RCC_TIM4_CLK_ENABLE();
 8000f44:	4b09      	ldr	r3, [pc, #36]	; (8000f6c <HAL_TIM_Base_MspInit+0xe8>)
    HAL_NVIC_SetPriority(TIM4_IRQn, 0, 0);
 8000f46:	201e      	movs	r0, #30
    __HAL_RCC_TIM4_CLK_ENABLE();
 8000f48:	69da      	ldr	r2, [r3, #28]
 8000f4a:	f042 0204 	orr.w	r2, r2, #4
 8000f4e:	61da      	str	r2, [r3, #28]
    HAL_NVIC_SetPriority(TIM4_IRQn, 0, 0);
 8000f50:	2200      	movs	r2, #0
    __HAL_RCC_TIM4_CLK_ENABLE();
 8000f52:	69db      	ldr	r3, [r3, #28]
    HAL_NVIC_SetPriority(TIM4_IRQn, 0, 0);
 8000f54:	4611      	mov	r1, r2
    __HAL_RCC_TIM4_CLK_ENABLE();
 8000f56:	f003 0304 	and.w	r3, r3, #4
 8000f5a:	9305      	str	r3, [sp, #20]
 8000f5c:	9b05      	ldr	r3, [sp, #20]
    HAL_NVIC_SetPriority(TIM4_IRQn, 0, 0);
 8000f5e:	f000 f9e7 	bl	8001330 <HAL_NVIC_SetPriority>
    HAL_NVIC_EnableIRQ(TIM4_IRQn);
 8000f62:	201e      	movs	r0, #30
 8000f64:	e7aa      	b.n	8000ebc <HAL_TIM_Base_MspInit+0x38>
 8000f66:	bf00      	nop
 8000f68:	40012c00 	.word	0x40012c00
 8000f6c:	40021000 	.word	0x40021000
 8000f70:	40010800 	.word	0x40010800
 8000f74:	40010000 	.word	0x40010000
 8000f78:	40000400 	.word	0x40000400
 8000f7c:	40000800 	.word	0x40000800

08000f80 <HAL_TIM_MspPostInit>:

void HAL_TIM_MspPostInit(TIM_HandleTypeDef* htim)
{
 8000f80:	b510      	push	{r4, lr}
 8000f82:	4604      	mov	r4, r0
 8000f84:	b086      	sub	sp, #24
  GPIO_InitTypeDef GPIO_InitStruct = {0};
 8000f86:	2210      	movs	r2, #16
 8000f88:	2100      	movs	r1, #0
 8000f8a:	a802      	add	r0, sp, #8
 8000f8c:	f001 faf2 	bl	8002574 <memset>
  if(htim->Instance==TIM2)
 8000f90:	6823      	ldr	r3, [r4, #0]
 8000f92:	f1b3 4f80 	cmp.w	r3, #1073741824	; 0x40000000
 8000f96:	d11b      	bne.n	8000fd0 <HAL_TIM_MspPostInit+0x50>
  {
  /* USER CODE BEGIN TIM2_MspPostInit 0 */

  /* USER CODE END TIM2_MspPostInit 0 */

    __HAL_RCC_GPIOB_CLK_ENABLE();
 8000f98:	f503 3304 	add.w	r3, r3, #135168	; 0x21000
 8000f9c:	699a      	ldr	r2, [r3, #24]
    PB11     ------> TIM2_CH4
    */
    GPIO_InitStruct.Pin = GPIO_PIN_11;
    GPIO_InitStruct.Mode = GPIO_MODE_AF_PP;
    GPIO_InitStruct.Speed = GPIO_SPEED_FREQ_LOW;
    HAL_GPIO_Init(GPIOB, &GPIO_InitStruct);
 8000f9e:	a902      	add	r1, sp, #8
    __HAL_RCC_GPIOB_CLK_ENABLE();
 8000fa0:	f042 0208 	orr.w	r2, r2, #8
 8000fa4:	619a      	str	r2, [r3, #24]
 8000fa6:	699b      	ldr	r3, [r3, #24]
    GPIO_InitStruct.Mode = GPIO_MODE_AF_PP;
 8000fa8:	f44f 6200 	mov.w	r2, #2048	; 0x800
    __HAL_RCC_GPIOB_CLK_ENABLE();
 8000fac:	f003 0308 	and.w	r3, r3, #8
 8000fb0:	9301      	str	r3, [sp, #4]
 8000fb2:	9b01      	ldr	r3, [sp, #4]
    GPIO_InitStruct.Mode = GPIO_MODE_AF_PP;
 8000fb4:	2302      	movs	r3, #2
    HAL_GPIO_Init(GPIOB, &GPIO_InitStruct);
 8000fb6:	4807      	ldr	r0, [pc, #28]	; (8000fd4 <HAL_TIM_MspPostInit+0x54>)
    GPIO_InitStruct.Mode = GPIO_MODE_AF_PP;
 8000fb8:	e9cd 2302 	strd	r2, r3, [sp, #8]
    GPIO_InitStruct.Speed = GPIO_SPEED_FREQ_LOW;
 8000fbc:	9305      	str	r3, [sp, #20]
    HAL_GPIO_Init(GPIOB, &GPIO_InitStruct);
 8000fbe:	f000 fad3 	bl	8001568 <HAL_GPIO_Init>

    __HAL_AFIO_REMAP_TIM2_ENABLE();
 8000fc2:	4a05      	ldr	r2, [pc, #20]	; (8000fd8 <HAL_TIM_MspPostInit+0x58>)
 8000fc4:	6853      	ldr	r3, [r2, #4]
 8000fc6:	f043 63e0 	orr.w	r3, r3, #117440512	; 0x7000000
 8000fca:	f443 7340 	orr.w	r3, r3, #768	; 0x300
 8000fce:	6053      	str	r3, [r2, #4]
  /* USER CODE BEGIN TIM2_MspPostInit 1 */

  /* USER CODE END TIM2_MspPostInit 1 */
  }

}
 8000fd0:	b006      	add	sp, #24
 8000fd2:	bd10      	pop	{r4, pc}
 8000fd4:	40010c00 	.word	0x40010c00
 8000fd8:	40010000 	.word	0x40010000

08000fdc <SDTimer_Handler>:
volatile uint8_t Timer1, Timer2;


void SDTimer_Handler(void)
{
  if(Timer1 > 0)
 8000fdc:	4a07      	ldr	r2, [pc, #28]	; (8000ffc <SDTimer_Handler+0x20>)
 8000fde:	7813      	ldrb	r3, [r2, #0]
 8000fe0:	b11b      	cbz	r3, 8000fea <SDTimer_Handler+0xe>
    Timer1--;
 8000fe2:	7813      	ldrb	r3, [r2, #0]
 8000fe4:	3b01      	subs	r3, #1
 8000fe6:	b2db      	uxtb	r3, r3
 8000fe8:	7013      	strb	r3, [r2, #0]

  if(Timer2 > 0)
 8000fea:	4a05      	ldr	r2, [pc, #20]	; (8001000 <SDTimer_Handler+0x24>)
 8000fec:	7813      	ldrb	r3, [r2, #0]
 8000fee:	b11b      	cbz	r3, 8000ff8 <SDTimer_Handler+0x1c>
    Timer2--;
 8000ff0:	7813      	ldrb	r3, [r2, #0]
 8000ff2:	3b01      	subs	r3, #1
 8000ff4:	b2db      	uxtb	r3, r3
 8000ff6:	7013      	strb	r3, [r2, #0]
}
 8000ff8:	4770      	bx	lr
 8000ffa:	bf00      	nop
 8000ffc:	200004fd 	.word	0x200004fd
 8001000:	200004fc 	.word	0x200004fc

08001004 <NMI_Handler>:

  /* USER CODE END NonMaskableInt_IRQn 0 */
  /* USER CODE BEGIN NonMaskableInt_IRQn 1 */

  /* USER CODE END NonMaskableInt_IRQn 1 */
}
 8001004:	4770      	bx	lr

08001006 <HardFault_Handler>:

/**
  * @brief This function handles Hard fault interrupt.
  */
void HardFault_Handler(void)
{
 8001006:	e7fe      	b.n	8001006 <HardFault_Handler>

08001008 <MemManage_Handler>:

/**
  * @brief This function handles Memory management fault.
  */
void MemManage_Handler(void)
{
 8001008:	e7fe      	b.n	8001008 <MemManage_Handler>

0800100a <BusFault_Handler>:

/**
  * @brief This function handles Prefetch fault, memory access fault.
  */
void BusFault_Handler(void)
{
 800100a:	e7fe      	b.n	800100a <BusFault_Handler>

0800100c <UsageFault_Handler>:

/**
  * @brief This function handles Undefined instruction or illegal state.
  */
void UsageFault_Handler(void)
{
 800100c:	e7fe      	b.n	800100c <UsageFault_Handler>

0800100e <SVC_Handler>:
 800100e:	4770      	bx	lr

08001010 <DebugMon_Handler>:
 8001010:	4770      	bx	lr

08001012 <PendSV_Handler>:
 8001012:	4770      	bx	lr

08001014 <SysTick_Handler>:

/**
  * @brief This function handles System tick timer.
  */
void SysTick_Handler(void)
{
 8001014:	b508      	push	{r3, lr}
  /* USER CODE BEGIN SysTick_IRQn 0 */
	FatFsCnt++;
 8001016:	4a08      	ldr	r2, [pc, #32]	; (8001038 <SysTick_Handler+0x24>)
 8001018:	7813      	ldrb	r3, [r2, #0]
 800101a:	3301      	adds	r3, #1
 800101c:	b2db      	uxtb	r3, r3
 800101e:	7013      	strb	r3, [r2, #0]
  if(FatFsCnt >= 10)
 8001020:	7813      	ldrb	r3, [r2, #0]
 8001022:	2b09      	cmp	r3, #9
 8001024:	d903      	bls.n	800102e <SysTick_Handler+0x1a>
  {
    FatFsCnt = 0;
 8001026:	2300      	movs	r3, #0
 8001028:	7013      	strb	r3, [r2, #0]
    SDTimer_Handler();
 800102a:	f7ff ffd7 	bl	8000fdc <SDTimer_Handler>
  /* USER CODE END SysTick_IRQn 0 */
  HAL_IncTick();
  /* USER CODE BEGIN SysTick_IRQn 1 */

  /* USER CODE END SysTick_IRQn 1 */
}
 800102e:	e8bd 4008 	ldmia.w	sp!, {r3, lr}
  HAL_IncTick();
 8001032:	f000 b947 	b.w	80012c4 <HAL_IncTick>
 8001036:	bf00      	nop
 8001038:	20000096 	.word	0x20000096

0800103c <EXTI0_IRQHandler>:

/**
  * @brief This function handles EXTI line0 interrupt.
  */
void EXTI0_IRQHandler(void)
{
 800103c:	b508      	push	{r3, lr}
  /* USER CODE BEGIN EXTI0_IRQn 0 */

  /* USER CODE END EXTI0_IRQn 0 */
  HAL_GPIO_EXTI_IRQHandler(GPIO_PIN_0);
 800103e:	2001      	movs	r0, #1
 8001040:	f000 fb84 	bl	800174c <HAL_GPIO_EXTI_IRQHandler>
  /* USER CODE BEGIN EXTI0_IRQn 1 */
	HAL_TIM_Base_Start_IT(&htim4);
 8001044:	4803      	ldr	r0, [pc, #12]	; (8001054 <EXTI0_IRQHandler+0x18>)
 8001046:	f000 ffa3 	bl	8001f90 <HAL_TIM_Base_Start_IT>

	pin_selected = 4;
 800104a:	2204      	movs	r2, #4
 800104c:	4b02      	ldr	r3, [pc, #8]	; (8001058 <EXTI0_IRQHandler+0x1c>)
 800104e:	701a      	strb	r2, [r3, #0]
  /* USER CODE END EXTI0_IRQn 1 */
}
 8001050:	bd08      	pop	{r3, pc}
 8001052:	bf00      	nop
 8001054:	200000fc 	.word	0x200000fc
 8001058:	20000097 	.word	0x20000097

0800105c <EXTI3_IRQHandler>:

/**
  * @brief This function handles EXTI line3 interrupt.
  */
void EXTI3_IRQHandler(void)
{
 800105c:	b508      	push	{r3, lr}
  /* USER CODE BEGIN EXTI3_IRQn 0 */

  /* USER CODE END EXTI3_IRQn 0 */
  HAL_GPIO_EXTI_IRQHandler(GPIO_PIN_3);
 800105e:	2008      	movs	r0, #8
 8001060:	f000 fb74 	bl	800174c <HAL_GPIO_EXTI_IRQHandler>
  /* USER CODE BEGIN EXTI3_IRQn 1 */
	HAL_TIM_Base_Start_IT(&htim4);
 8001064:	4803      	ldr	r0, [pc, #12]	; (8001074 <EXTI3_IRQHandler+0x18>)
 8001066:	f000 ff93 	bl	8001f90 <HAL_TIM_Base_Start_IT>

	      	pin_selected = 3;
 800106a:	2203      	movs	r2, #3
 800106c:	4b02      	ldr	r3, [pc, #8]	; (8001078 <EXTI3_IRQHandler+0x1c>)
 800106e:	701a      	strb	r2, [r3, #0]
  /* USER CODE END EXTI3_IRQn 1 */
}
 8001070:	bd08      	pop	{r3, pc}
 8001072:	bf00      	nop
 8001074:	200000fc 	.word	0x200000fc
 8001078:	20000097 	.word	0x20000097

0800107c <DMA1_Channel2_IRQHandler>:
void DMA1_Channel2_IRQHandler(void)
{
  /* USER CODE BEGIN DMA1_Channel2_IRQn 0 */

  /* USER CODE END DMA1_Channel2_IRQn 0 */
  HAL_DMA_IRQHandler(&hdma_spi1_rx);
 800107c:	4801      	ldr	r0, [pc, #4]	; (8001084 <DMA1_Channel2_IRQHandler+0x8>)
 800107e:	f000 b9df 	b.w	8001440 <HAL_DMA_IRQHandler>
 8001082:	bf00      	nop
 8001084:	20000430 	.word	0x20000430

08001088 <DMA1_Channel3_IRQHandler>:
void DMA1_Channel3_IRQHandler(void)
{
  /* USER CODE BEGIN DMA1_Channel3_IRQn 0 */

  /* USER CODE END DMA1_Channel3_IRQn 0 */
  HAL_DMA_IRQHandler(&hdma_spi1_tx);
 8001088:	4801      	ldr	r0, [pc, #4]	; (8001090 <DMA1_Channel3_IRQHandler+0x8>)
 800108a:	f000 b9d9 	b.w	8001440 <HAL_DMA_IRQHandler>
 800108e:	bf00      	nop
 8001090:	200004b8 	.word	0x200004b8

08001094 <DMA1_Channel5_IRQHandler>:
void DMA1_Channel5_IRQHandler(void)
{
  /* USER CODE BEGIN DMA1_Channel5_IRQn 0 */

  /* USER CODE END DMA1_Channel5_IRQn 0 */
  HAL_DMA_IRQHandler(&hdma_spi2_tx);
 8001094:	4801      	ldr	r0, [pc, #4]	; (800109c <DMA1_Channel5_IRQHandler+0x8>)
 8001096:	f000 b9d3 	b.w	8001440 <HAL_DMA_IRQHandler>
 800109a:	bf00      	nop
 800109c:	20000474 	.word	0x20000474

080010a0 <TIM1_UP_IRQHandler>:
void TIM1_UP_IRQHandler(void)
{
  /* USER CODE BEGIN TIM1_UP_IRQn 0 */

  /* USER CODE END TIM1_UP_IRQn 0 */
  HAL_TIM_IRQHandler(&htim1);
 80010a0:	4801      	ldr	r0, [pc, #4]	; (80010a8 <TIM1_UP_IRQHandler+0x8>)
 80010a2:	f000 bf9f 	b.w	8001fe4 <HAL_TIM_IRQHandler>
 80010a6:	bf00      	nop
 80010a8:	20000358 	.word	0x20000358

080010ac <TIM3_IRQHandler>:

/**
  * @brief This function handles TIM3 global interrupt.
  */
void TIM3_IRQHandler(void)
{
 80010ac:	b538      	push	{r3, r4, r5, lr}
  /* USER CODE BEGIN TIM3_IRQn 0 */

  /* USER CODE END TIM3_IRQn 0 */
  HAL_TIM_IRQHandler(&htim3);
  /* USER CODE BEGIN TIM3_IRQn 1 */
  if(sound_on == 1){
 80010ae:	4c13      	ldr	r4, [pc, #76]	; (80010fc <TIM3_IRQHandler+0x50>)
  HAL_TIM_IRQHandler(&htim3);
 80010b0:	4813      	ldr	r0, [pc, #76]	; (8001100 <TIM3_IRQHandler+0x54>)
 80010b2:	f000 ff97 	bl	8001fe4 <HAL_TIM_IRQHandler>
  if(sound_on == 1){
 80010b6:	7821      	ldrb	r1, [r4, #0]
 80010b8:	2901      	cmp	r1, #1
 80010ba:	d113      	bne.n	80010e4 <TIM3_IRQHandler+0x38>
 	 if(sound < 1){
 80010bc:	4b11      	ldr	r3, [pc, #68]	; (8001104 <TIM3_IRQHandler+0x58>)
 80010be:	781a      	ldrb	r2, [r3, #0]
 80010c0:	b98a      	cbnz	r2, 80010e6 <TIM3_IRQHandler+0x3a>
 		 __HAL_TIM_SET_AUTORELOAD(&htim2,coin_effect[0]);
 80010c2:	4a11      	ldr	r2, [pc, #68]	; (8001108 <TIM3_IRQHandler+0x5c>)
 80010c4:	4811      	ldr	r0, [pc, #68]	; (800110c <TIM3_IRQHandler+0x60>)
 80010c6:	6815      	ldr	r5, [r2, #0]
 80010c8:	8800      	ldrh	r0, [r0, #0]
 		 sound++;
 80010ca:	7019      	strb	r1, [r3, #0]
 		 __HAL_TIM_SET_AUTORELOAD(&htim2,coin_effect[0]);
 80010cc:	62e8      	str	r0, [r5, #44]	; 0x2c
 80010ce:	60d0      	str	r0, [r2, #12]
 	 if(sound < 4){
 		 __HAL_TIM_SET_AUTORELOAD(&htim2,coin_effect[1]);
 	 }
 	 sound++;
 	 }
 	 if(sound > 4){
 80010d0:	781a      	ldrb	r2, [r3, #0]
 80010d2:	2a04      	cmp	r2, #4
 80010d4:	d906      	bls.n	80010e4 <TIM3_IRQHandler+0x38>
 		 sound_on = 0;
 80010d6:	2200      	movs	r2, #0
 		 sound = 0;
 80010d8:	701a      	strb	r2, [r3, #0]
 		 __HAL_TIM_SET_AUTORELOAD(&htim2,0);
 80010da:	4b0b      	ldr	r3, [pc, #44]	; (8001108 <TIM3_IRQHandler+0x5c>)
 		 sound_on = 0;
 80010dc:	7022      	strb	r2, [r4, #0]
 		 __HAL_TIM_SET_AUTORELOAD(&htim2,0);
 80010de:	6819      	ldr	r1, [r3, #0]
 80010e0:	60da      	str	r2, [r3, #12]
 80010e2:	62ca      	str	r2, [r1, #44]	; 0x2c
 	 }
  }
  /* USER CODE END TIM3_IRQn 1 */
}
 80010e4:	bd38      	pop	{r3, r4, r5, pc}
 	 if(sound < 4){
 80010e6:	2a03      	cmp	r2, #3
 80010e8:	d805      	bhi.n	80010f6 <TIM3_IRQHandler+0x4a>
 		 __HAL_TIM_SET_AUTORELOAD(&htim2,coin_effect[1]);
 80010ea:	4907      	ldr	r1, [pc, #28]	; (8001108 <TIM3_IRQHandler+0x5c>)
 80010ec:	4807      	ldr	r0, [pc, #28]	; (800110c <TIM3_IRQHandler+0x60>)
 80010ee:	680d      	ldr	r5, [r1, #0]
 80010f0:	8840      	ldrh	r0, [r0, #2]
 80010f2:	62e8      	str	r0, [r5, #44]	; 0x2c
 80010f4:	60c8      	str	r0, [r1, #12]
 	 sound++;
 80010f6:	3201      	adds	r2, #1
 80010f8:	701a      	strb	r2, [r3, #0]
 80010fa:	e7e9      	b.n	80010d0 <TIM3_IRQHandler+0x24>
 80010fc:	20000095 	.word	0x20000095
 8001100:	2000013c 	.word	0x2000013c
 8001104:	20000094 	.word	0x20000094
 8001108:	200003f0 	.word	0x200003f0
 800110c:	20000000 	.word	0x20000000

08001110 <TIM4_IRQHandler>:
void TIM4_IRQHandler(void)
{
  /* USER CODE BEGIN TIM4_IRQn 0 */

  /* USER CODE END TIM4_IRQn 0 */
  HAL_TIM_IRQHandler(&htim4);
 8001110:	4801      	ldr	r0, [pc, #4]	; (8001118 <TIM4_IRQHandler+0x8>)
 8001112:	f000 bf67 	b.w	8001fe4 <HAL_TIM_IRQHandler>
 8001116:	bf00      	nop
 8001118:	200000fc 	.word	0x200000fc

0800111c <EXTI15_10_IRQHandler>:

/**
  * @brief This function handles EXTI line[15:10] interrupts.
  */
void EXTI15_10_IRQHandler(void)
{
 800111c:	b508      	push	{r3, lr}
  /* USER CODE BEGIN EXTI15_10_IRQn 0 */

  /* USER CODE END EXTI15_10_IRQn 0 */
  HAL_GPIO_EXTI_IRQHandler(GPIO_PIN_13);
 800111e:	f44f 5000 	mov.w	r0, #8192	; 0x2000
 8001122:	f000 fb13 	bl	800174c <HAL_GPIO_EXTI_IRQHandler>
  HAL_GPIO_EXTI_IRQHandler(GPIO_PIN_14);
 8001126:	f44f 4080 	mov.w	r0, #16384	; 0x4000
 800112a:	f000 fb0f 	bl	800174c <HAL_GPIO_EXTI_IRQHandler>
  HAL_GPIO_EXTI_IRQHandler(GPIO_PIN_15);
  /* USER CODE BEGIN EXTI15_10_IRQn 1 */

  /* USER CODE END EXTI15_10_IRQn 1 */
}
 800112e:	e8bd 4008 	ldmia.w	sp!, {r3, lr}
  HAL_GPIO_EXTI_IRQHandler(GPIO_PIN_15);
 8001132:	f44f 4000 	mov.w	r0, #32768	; 0x8000
 8001136:	f000 bb09 	b.w	800174c <HAL_GPIO_EXTI_IRQHandler>
	...

0800113c <HAL_GPIO_EXTI_Callback>:

/* USER CODE BEGIN 1 */

void HAL_GPIO_EXTI_Callback(uint16_t GPIO_Pin)
{
	  if ( GPIO_Pin == GPIO_PIN_13)
 800113c:	f5b0 5f00 	cmp.w	r0, #8192	; 0x2000
{
 8001140:	b508      	push	{r3, lr}
	  if ( GPIO_Pin == GPIO_PIN_13)
 8001142:	d106      	bne.n	8001152 <HAL_GPIO_EXTI_Callback+0x16>
	      {
	          // Write your code here
	      	HAL_TIM_Base_Start_IT(&htim4);
 8001144:	480c      	ldr	r0, [pc, #48]	; (8001178 <HAL_GPIO_EXTI_Callback+0x3c>)
 8001146:	f000 ff23 	bl	8001f90 <HAL_TIM_Base_Start_IT>

	      	pin_selected = 3;
 800114a:	2203      	movs	r2, #3
 800114c:	4b0b      	ldr	r3, [pc, #44]	; (800117c <HAL_GPIO_EXTI_Callback+0x40>)
	           {
	               // Write your code here

	       	HAL_TIM_Base_Start_IT(&htim4);

	       	pin_selected = 5;
 800114e:	701a      	strb	r2, [r3, #0]

	   //   	 HAL_GPIO_TogglePin(GPIOA, GPIO_PIN_4);
	           }

}
 8001150:	bd08      	pop	{r3, pc}
	      if ( GPIO_Pin == GPIO_PIN_14)
 8001152:	f5b0 4f80 	cmp.w	r0, #16384	; 0x4000
 8001156:	d105      	bne.n	8001164 <HAL_GPIO_EXTI_Callback+0x28>
	      	HAL_TIM_Base_Start_IT(&htim4);
 8001158:	4807      	ldr	r0, [pc, #28]	; (8001178 <HAL_GPIO_EXTI_Callback+0x3c>)
 800115a:	f000 ff19 	bl	8001f90 <HAL_TIM_Base_Start_IT>
	      	pin_selected = 4;
 800115e:	4b07      	ldr	r3, [pc, #28]	; (800117c <HAL_GPIO_EXTI_Callback+0x40>)
 8001160:	2204      	movs	r2, #4
 8001162:	e7f4      	b.n	800114e <HAL_GPIO_EXTI_Callback+0x12>
	      if ( GPIO_Pin == GPIO_PIN_15)
 8001164:	f5b0 4f00 	cmp.w	r0, #32768	; 0x8000
 8001168:	d1f2      	bne.n	8001150 <HAL_GPIO_EXTI_Callback+0x14>
	       	HAL_TIM_Base_Start_IT(&htim4);
 800116a:	4803      	ldr	r0, [pc, #12]	; (8001178 <HAL_GPIO_EXTI_Callback+0x3c>)
 800116c:	f000 ff10 	bl	8001f90 <HAL_TIM_Base_Start_IT>
	       	pin_selected = 5;
 8001170:	4b02      	ldr	r3, [pc, #8]	; (800117c <HAL_GPIO_EXTI_Callback+0x40>)
 8001172:	2205      	movs	r2, #5
 8001174:	e7eb      	b.n	800114e <HAL_GPIO_EXTI_Callback+0x12>
 8001176:	bf00      	nop
 8001178:	200000fc 	.word	0x200000fc
 800117c:	20000097 	.word	0x20000097

08001180 <_sbrk>:
 8001180:	4b0b      	ldr	r3, [pc, #44]	; (80011b0 <_sbrk+0x30>)
 8001182:	b510      	push	{r4, lr}
 8001184:	6819      	ldr	r1, [r3, #0]
 8001186:	4602      	mov	r2, r0
 8001188:	b909      	cbnz	r1, 800118e <_sbrk+0xe>
 800118a:	490a      	ldr	r1, [pc, #40]	; (80011b4 <_sbrk+0x34>)
 800118c:	6019      	str	r1, [r3, #0]
 800118e:	6818      	ldr	r0, [r3, #0]
 8001190:	4909      	ldr	r1, [pc, #36]	; (80011b8 <_sbrk+0x38>)
 8001192:	4c0a      	ldr	r4, [pc, #40]	; (80011bc <_sbrk+0x3c>)
 8001194:	4402      	add	r2, r0
 8001196:	1b09      	subs	r1, r1, r4
 8001198:	428a      	cmp	r2, r1
 800119a:	d906      	bls.n	80011aa <_sbrk+0x2a>
 800119c:	f001 f9b0 	bl	8002500 <__errno>
 80011a0:	230c      	movs	r3, #12
 80011a2:	6003      	str	r3, [r0, #0]
 80011a4:	f04f 30ff 	mov.w	r0, #4294967295
 80011a8:	bd10      	pop	{r4, pc}
 80011aa:	601a      	str	r2, [r3, #0]
 80011ac:	e7fc      	b.n	80011a8 <_sbrk+0x28>
 80011ae:	bf00      	nop
 80011b0:	20000098 	.word	0x20000098
 80011b4:	20000508 	.word	0x20000508
 80011b8:	20005000 	.word	0x20005000
 80011bc:	00000400 	.word	0x00000400

080011c0 <SystemInit>:
  */
void SystemInit (void)
{
  /* Reset the RCC clock configuration to the default reset state(for debug purpose) */
  /* Set HSION bit */
  RCC->CR |= 0x00000001U;
 80011c0:	4b0f      	ldr	r3, [pc, #60]	; (8001200 <SystemInit+0x40>)
 80011c2:	681a      	ldr	r2, [r3, #0]
 80011c4:	f042 0201 	orr.w	r2, r2, #1
 80011c8:	601a      	str	r2, [r3, #0]

  /* Reset SW, HPRE, PPRE1, PPRE2, ADCPRE and MCO bits */
#if !defined(STM32F105xC) && !defined(STM32F107xC)
  RCC->CFGR &= 0xF8FF0000U;
 80011ca:	6859      	ldr	r1, [r3, #4]
 80011cc:	4a0d      	ldr	r2, [pc, #52]	; (8001204 <SystemInit+0x44>)
 80011ce:	400a      	ands	r2, r1
 80011d0:	605a      	str	r2, [r3, #4]
#else
  RCC->CFGR &= 0xF0FF0000U;
#endif /* STM32F105xC */   
  
  /* Reset HSEON, CSSON and PLLON bits */
  RCC->CR &= 0xFEF6FFFFU;
 80011d2:	681a      	ldr	r2, [r3, #0]
 80011d4:	f022 7284 	bic.w	r2, r2, #17301504	; 0x1080000
 80011d8:	f422 3280 	bic.w	r2, r2, #65536	; 0x10000
 80011dc:	601a      	str	r2, [r3, #0]

  /* Reset HSEBYP bit */
  RCC->CR &= 0xFFFBFFFFU;
 80011de:	681a      	ldr	r2, [r3, #0]
 80011e0:	f422 2280 	bic.w	r2, r2, #262144	; 0x40000
 80011e4:	601a      	str	r2, [r3, #0]

  /* Reset PLLSRC, PLLXTPRE, PLLMUL and USBPRE/OTGFSPRE bits */
  RCC->CFGR &= 0xFF80FFFFU;
 80011e6:	685a      	ldr	r2, [r3, #4]
 80011e8:	f422 02fe 	bic.w	r2, r2, #8323072	; 0x7f0000
 80011ec:	605a      	str	r2, [r3, #4]

  /* Reset CFGR2 register */
  RCC->CFGR2 = 0x00000000U;      
#else
  /* Disable all interrupts and clear pending bits  */
  RCC->CIR = 0x009F0000U;
 80011ee:	f44f 021f 	mov.w	r2, #10420224	; 0x9f0000
 80011f2:	609a      	str	r2, [r3, #8]
#endif 

#ifdef VECT_TAB_SRAM
  SCB->VTOR = SRAM_BASE | VECT_TAB_OFFSET; /* Vector Table Relocation in Internal SRAM. */
#else
  SCB->VTOR = FLASH_BASE | VECT_TAB_OFFSET; /* Vector Table Relocation in Internal FLASH. */
 80011f4:	f04f 6200 	mov.w	r2, #134217728	; 0x8000000
 80011f8:	4b03      	ldr	r3, [pc, #12]	; (8001208 <SystemInit+0x48>)
 80011fa:	609a      	str	r2, [r3, #8]
#endif 
}
 80011fc:	4770      	bx	lr
 80011fe:	bf00      	nop
 8001200:	40021000 	.word	0x40021000
 8001204:	f8ff0000 	.word	0xf8ff0000
 8001208:	e000ed00 	.word	0xe000ed00

0800120c <Reset_Handler>:
 800120c:	2100      	movs	r1, #0
 800120e:	e003      	b.n	8001218 <LoopCopyDataInit>

08001210 <CopyDataInit>:
 8001210:	4b0b      	ldr	r3, [pc, #44]	; (8001240 <LoopFillZerobss+0x14>)
 8001212:	585b      	ldr	r3, [r3, r1]
 8001214:	5043      	str	r3, [r0, r1]
 8001216:	3104      	adds	r1, #4

08001218 <LoopCopyDataInit>:
 8001218:	480a      	ldr	r0, [pc, #40]	; (8001244 <LoopFillZerobss+0x18>)
 800121a:	4b0b      	ldr	r3, [pc, #44]	; (8001248 <LoopFillZerobss+0x1c>)
 800121c:	1842      	adds	r2, r0, r1
 800121e:	429a      	cmp	r2, r3
 8001220:	d3f6      	bcc.n	8001210 <CopyDataInit>
 8001222:	4a0a      	ldr	r2, [pc, #40]	; (800124c <LoopFillZerobss+0x20>)
 8001224:	e002      	b.n	800122c <LoopFillZerobss>

08001226 <FillZerobss>:
 8001226:	2300      	movs	r3, #0
 8001228:	f842 3b04 	str.w	r3, [r2], #4

0800122c <LoopFillZerobss>:
 800122c:	4b08      	ldr	r3, [pc, #32]	; (8001250 <LoopFillZerobss+0x24>)
 800122e:	429a      	cmp	r2, r3
 8001230:	d3f9      	bcc.n	8001226 <FillZerobss>
 8001232:	f7ff ffc5 	bl	80011c0 <SystemInit>
 8001236:	f001 f969 	bl	800250c <__libc_init_array>
 800123a:	f7ff f81f 	bl	800027c <main>
 800123e:	4770      	bx	lr
 8001240:	0800cff0 	.word	0x0800cff0
 8001244:	20000000 	.word	0x20000000
 8001248:	20000074 	.word	0x20000074
 800124c:	20000074 	.word	0x20000074
 8001250:	20000508 	.word	0x20000508

08001254 <ADC1_2_IRQHandler>:
 8001254:	e7fe      	b.n	8001254 <ADC1_2_IRQHandler>
	...

08001258 <HAL_InitTick>:
  *       implementation  in user file.
  * @param TickPriority Tick interrupt priority.
  * @retval HAL status
  */
__weak HAL_StatusTypeDef HAL_InitTick(uint32_t TickPriority)
{
 8001258:	b538      	push	{r3, r4, r5, lr}
  /* Configure the SysTick to have interrupt in 1ms time basis*/
  if (HAL_SYSTICK_Config(SystemCoreClock / (1000U / uwTickFreq)) > 0U)
 800125a:	4b0e      	ldr	r3, [pc, #56]	; (8001294 <HAL_InitTick+0x3c>)
{
 800125c:	4605      	mov	r5, r0
  if (HAL_SYSTICK_Config(SystemCoreClock / (1000U / uwTickFreq)) > 0U)
 800125e:	7818      	ldrb	r0, [r3, #0]
 8001260:	f44f 737a 	mov.w	r3, #1000	; 0x3e8
 8001264:	fbb3 f3f0 	udiv	r3, r3, r0
 8001268:	4a0b      	ldr	r2, [pc, #44]	; (8001298 <HAL_InitTick+0x40>)
 800126a:	6810      	ldr	r0, [r2, #0]
 800126c:	fbb0 f0f3 	udiv	r0, r0, r3
 8001270:	f000 f8a0 	bl	80013b4 <HAL_SYSTICK_Config>
 8001274:	4604      	mov	r4, r0
 8001276:	b958      	cbnz	r0, 8001290 <HAL_InitTick+0x38>
  {
    return HAL_ERROR;
  }

  /* Configure the SysTick IRQ priority */
  if (TickPriority < (1UL << __NVIC_PRIO_BITS))
 8001278:	2d0f      	cmp	r5, #15
 800127a:	d809      	bhi.n	8001290 <HAL_InitTick+0x38>
  {
    HAL_NVIC_SetPriority(SysTick_IRQn, TickPriority, 0U);
 800127c:	4602      	mov	r2, r0
 800127e:	4629      	mov	r1, r5
 8001280:	f04f 30ff 	mov.w	r0, #4294967295
 8001284:	f000 f854 	bl	8001330 <HAL_NVIC_SetPriority>
    uwTickPrio = TickPriority;
 8001288:	4620      	mov	r0, r4
 800128a:	4b04      	ldr	r3, [pc, #16]	; (800129c <HAL_InitTick+0x44>)
 800128c:	601d      	str	r5, [r3, #0]
    return HAL_ERROR;
  }

  /* Return function status */
  return HAL_OK;
}
 800128e:	bd38      	pop	{r3, r4, r5, pc}
    return HAL_ERROR;
 8001290:	2001      	movs	r0, #1
 8001292:	e7fc      	b.n	800128e <HAL_InitTick+0x36>
 8001294:	20000008 	.word	0x20000008
 8001298:	20000004 	.word	0x20000004
 800129c:	2000000c 	.word	0x2000000c

080012a0 <HAL_Init>:
  __HAL_FLASH_PREFETCH_BUFFER_ENABLE();
 80012a0:	4a07      	ldr	r2, [pc, #28]	; (80012c0 <HAL_Init+0x20>)
{
 80012a2:	b508      	push	{r3, lr}
  __HAL_FLASH_PREFETCH_BUFFER_ENABLE();
 80012a4:	6813      	ldr	r3, [r2, #0]
  HAL_NVIC_SetPriorityGrouping(NVIC_PRIORITYGROUP_4);
 80012a6:	2003      	movs	r0, #3
  __HAL_FLASH_PREFETCH_BUFFER_ENABLE();
 80012a8:	f043 0310 	orr.w	r3, r3, #16
 80012ac:	6013      	str	r3, [r2, #0]
  HAL_NVIC_SetPriorityGrouping(NVIC_PRIORITYGROUP_4);
 80012ae:	f000 f82d 	bl	800130c <HAL_NVIC_SetPriorityGrouping>
  HAL_InitTick(TICK_INT_PRIORITY);
 80012b2:	2000      	movs	r0, #0
 80012b4:	f7ff ffd0 	bl	8001258 <HAL_InitTick>
  HAL_MspInit();
 80012b8:	f7ff fd0a 	bl	8000cd0 <HAL_MspInit>
}
 80012bc:	2000      	movs	r0, #0
 80012be:	bd08      	pop	{r3, pc}
 80012c0:	40022000 	.word	0x40022000

080012c4 <HAL_IncTick>:
  *      implementations in user file.
  * @retval None
  */
__weak void HAL_IncTick(void)
{
  uwTick += uwTickFreq;
 80012c4:	4a03      	ldr	r2, [pc, #12]	; (80012d4 <HAL_IncTick+0x10>)
 80012c6:	4b04      	ldr	r3, [pc, #16]	; (80012d8 <HAL_IncTick+0x14>)
 80012c8:	6811      	ldr	r1, [r2, #0]
 80012ca:	781b      	ldrb	r3, [r3, #0]
 80012cc:	440b      	add	r3, r1
 80012ce:	6013      	str	r3, [r2, #0]
}
 80012d0:	4770      	bx	lr
 80012d2:	bf00      	nop
 80012d4:	20000500 	.word	0x20000500
 80012d8:	20000008 	.word	0x20000008

080012dc <HAL_GetTick>:
  *       implementations in user file.
  * @retval tick value
  */
__weak uint32_t HAL_GetTick(void)
{
  return uwTick;
 80012dc:	4b01      	ldr	r3, [pc, #4]	; (80012e4 <HAL_GetTick+0x8>)
 80012de:	6818      	ldr	r0, [r3, #0]
}
 80012e0:	4770      	bx	lr
 80012e2:	bf00      	nop
 80012e4:	20000500 	.word	0x20000500

080012e8 <HAL_Delay>:
  *       implementations in user file.
  * @param Delay specifies the delay time length, in milliseconds.
  * @retval None
  */
__weak void HAL_Delay(uint32_t Delay)
{
 80012e8:	b538      	push	{r3, r4, r5, lr}
 80012ea:	4604      	mov	r4, r0
  uint32_t tickstart = HAL_GetTick();
 80012ec:	f7ff fff6 	bl	80012dc <HAL_GetTick>
 80012f0:	4605      	mov	r5, r0
  uint32_t wait = Delay;

  /* Add a freq to guarantee minimum wait */
  if (wait < HAL_MAX_DELAY)
 80012f2:	1c63      	adds	r3, r4, #1
  {
    wait += (uint32_t)(uwTickFreq);
 80012f4:	bf1e      	ittt	ne
 80012f6:	4b04      	ldrne	r3, [pc, #16]	; (8001308 <HAL_Delay+0x20>)
 80012f8:	781b      	ldrbne	r3, [r3, #0]
 80012fa:	18e4      	addne	r4, r4, r3
  }

  while ((HAL_GetTick() - tickstart) < wait)
 80012fc:	f7ff ffee 	bl	80012dc <HAL_GetTick>
 8001300:	1b40      	subs	r0, r0, r5
 8001302:	42a0      	cmp	r0, r4
 8001304:	d3fa      	bcc.n	80012fc <HAL_Delay+0x14>
  {
  }
}
 8001306:	bd38      	pop	{r3, r4, r5, pc}
 8001308:	20000008 	.word	0x20000008

0800130c <HAL_NVIC_SetPriorityGrouping>:
__STATIC_INLINE void __NVIC_SetPriorityGrouping(uint32_t PriorityGroup)
{
  uint32_t reg_value;
  uint32_t PriorityGroupTmp = (PriorityGroup & (uint32_t)0x07UL);             /* only values 0..7 are used          */

  reg_value  =  SCB->AIRCR;                                                   /* read old register configuration    */
 800130c:	4a07      	ldr	r2, [pc, #28]	; (800132c <HAL_NVIC_SetPriorityGrouping+0x20>)
  reg_value &= ~((uint32_t)(SCB_AIRCR_VECTKEY_Msk | SCB_AIRCR_PRIGROUP_Msk)); /* clear bits to change               */
  reg_value  =  (reg_value                                   |
                ((uint32_t)0x5FAUL << SCB_AIRCR_VECTKEY_Pos) |
                (PriorityGroupTmp << SCB_AIRCR_PRIGROUP_Pos) );               /* Insert write key and priority group */
 800130e:	0200      	lsls	r0, r0, #8
  reg_value  =  SCB->AIRCR;                                                   /* read old register configuration    */
 8001310:	68d3      	ldr	r3, [r2, #12]
                (PriorityGroupTmp << SCB_AIRCR_PRIGROUP_Pos) );               /* Insert write key and priority group */
 8001312:	f400 60e0 	and.w	r0, r0, #1792	; 0x700
  reg_value &= ~((uint32_t)(SCB_AIRCR_VECTKEY_Msk | SCB_AIRCR_PRIGROUP_Msk)); /* clear bits to change               */
 8001316:	f423 63e0 	bic.w	r3, r3, #1792	; 0x700
 800131a:	041b      	lsls	r3, r3, #16
 800131c:	0c1b      	lsrs	r3, r3, #16
 800131e:	f043 63bf 	orr.w	r3, r3, #100139008	; 0x5f80000
 8001322:	f443 3300 	orr.w	r3, r3, #131072	; 0x20000
  reg_value  =  (reg_value                                   |
 8001326:	4303      	orrs	r3, r0
  SCB->AIRCR =  reg_value;
 8001328:	60d3      	str	r3, [r2, #12]
  /* Check the parameters */
  assert_param(IS_NVIC_PRIORITY_GROUP(PriorityGroup));
  
  /* Set the PRIGROUP[10:8] bits according to the PriorityGroup parameter value */
  NVIC_SetPriorityGrouping(PriorityGroup);
}
 800132a:	4770      	bx	lr
 800132c:	e000ed00 	.word	0xe000ed00

08001330 <HAL_NVIC_SetPriority>:
  \details Reads the priority grouping field from the NVIC Interrupt Controller.
  \return                Priority grouping field (SCB->AIRCR [10:8] PRIGROUP field).
 */
__STATIC_INLINE uint32_t __NVIC_GetPriorityGrouping(void)
{
  return ((uint32_t)((SCB->AIRCR & SCB_AIRCR_PRIGROUP_Msk) >> SCB_AIRCR_PRIGROUP_Pos));
 8001330:	4b17      	ldr	r3, [pc, #92]	; (8001390 <HAL_NVIC_SetPriority+0x60>)
  *         This parameter can be a value between 0 and 15
  *         A lower priority value indicates a higher priority.          
  * @retval None
  */
void HAL_NVIC_SetPriority(IRQn_Type IRQn, uint32_t PreemptPriority, uint32_t SubPriority)
{ 
 8001332:	b570      	push	{r4, r5, r6, lr}
 8001334:	68dc      	ldr	r4, [r3, #12]

  PreemptPriorityBits = ((7UL - PriorityGroupTmp) > (uint32_t)(__NVIC_PRIO_BITS)) ? (uint32_t)(__NVIC_PRIO_BITS) : (uint32_t)(7UL - PriorityGroupTmp);
  SubPriorityBits     = ((PriorityGroupTmp + (uint32_t)(__NVIC_PRIO_BITS)) < (uint32_t)7UL) ? (uint32_t)0UL : (uint32_t)((PriorityGroupTmp - 7UL) + (uint32_t)(__NVIC_PRIO_BITS));

  return (
           ((PreemptPriority & (uint32_t)((1UL << (PreemptPriorityBits)) - 1UL)) << SubPriorityBits) |
 8001336:	f04f 36ff 	mov.w	r6, #4294967295
  return ((uint32_t)((SCB->AIRCR & SCB_AIRCR_PRIGROUP_Msk) >> SCB_AIRCR_PRIGROUP_Pos));
 800133a:	f3c4 2402 	ubfx	r4, r4, #8, #3
  PreemptPriorityBits = ((7UL - PriorityGroupTmp) > (uint32_t)(__NVIC_PRIO_BITS)) ? (uint32_t)(__NVIC_PRIO_BITS) : (uint32_t)(7UL - PriorityGroupTmp);
 800133e:	f1c4 0507 	rsb	r5, r4, #7
 8001342:	2d04      	cmp	r5, #4
  SubPriorityBits     = ((PriorityGroupTmp + (uint32_t)(__NVIC_PRIO_BITS)) < (uint32_t)7UL) ? (uint32_t)0UL : (uint32_t)((PriorityGroupTmp - 7UL) + (uint32_t)(__NVIC_PRIO_BITS));
 8001344:	f104 0304 	add.w	r3, r4, #4
  PreemptPriorityBits = ((7UL - PriorityGroupTmp) > (uint32_t)(__NVIC_PRIO_BITS)) ? (uint32_t)(__NVIC_PRIO_BITS) : (uint32_t)(7UL - PriorityGroupTmp);
 8001348:	bf28      	it	cs
 800134a:	2504      	movcs	r5, #4
  SubPriorityBits     = ((PriorityGroupTmp + (uint32_t)(__NVIC_PRIO_BITS)) < (uint32_t)7UL) ? (uint32_t)0UL : (uint32_t)((PriorityGroupTmp - 7UL) + (uint32_t)(__NVIC_PRIO_BITS));
 800134c:	2b06      	cmp	r3, #6
 800134e:	bf98      	it	ls
 8001350:	2400      	movls	r4, #0
           ((PreemptPriority & (uint32_t)((1UL << (PreemptPriorityBits)) - 1UL)) << SubPriorityBits) |
 8001352:	fa06 f305 	lsl.w	r3, r6, r5
  SubPriorityBits     = ((PriorityGroupTmp + (uint32_t)(__NVIC_PRIO_BITS)) < (uint32_t)7UL) ? (uint32_t)0UL : (uint32_t)((PriorityGroupTmp - 7UL) + (uint32_t)(__NVIC_PRIO_BITS));
 8001356:	bf88      	it	hi
 8001358:	3c03      	subhi	r4, #3
           ((PreemptPriority & (uint32_t)((1UL << (PreemptPriorityBits)) - 1UL)) << SubPriorityBits) |
 800135a:	ea21 0303 	bic.w	r3, r1, r3
 800135e:	40a3      	lsls	r3, r4
           ((SubPriority     & (uint32_t)((1UL << (SubPriorityBits    )) - 1UL)))
 8001360:	fa06 f404 	lsl.w	r4, r6, r4
 8001364:	ea22 0404 	bic.w	r4, r2, r4
  if ((int32_t)(IRQn) >= 0)
 8001368:	2800      	cmp	r0, #0
           ((PreemptPriority & (uint32_t)((1UL << (PreemptPriorityBits)) - 1UL)) << SubPriorityBits) |
 800136a:	ea43 0304 	orr.w	r3, r3, r4
    NVIC->IP[((uint32_t)IRQn)]               = (uint8_t)((priority << (8U - __NVIC_PRIO_BITS)) & (uint32_t)0xFFUL);
 800136e:	bfa8      	it	ge
 8001370:	f100 4060 	addge.w	r0, r0, #3758096384	; 0xe0000000
 8001374:	ea4f 1303 	mov.w	r3, r3, lsl #4
    SCB->SHP[(((uint32_t)IRQn) & 0xFUL)-4UL] = (uint8_t)((priority << (8U - __NVIC_PRIO_BITS)) & (uint32_t)0xFFUL);
 8001378:	bfb8      	it	lt
 800137a:	4a06      	ldrlt	r2, [pc, #24]	; (8001394 <HAL_NVIC_SetPriority+0x64>)
 800137c:	b2db      	uxtb	r3, r3
    NVIC->IP[((uint32_t)IRQn)]               = (uint8_t)((priority << (8U - __NVIC_PRIO_BITS)) & (uint32_t)0xFFUL);
 800137e:	bfab      	itete	ge
 8001380:	f500 4061 	addge.w	r0, r0, #57600	; 0xe100
    SCB->SHP[(((uint32_t)IRQn) & 0xFUL)-4UL] = (uint8_t)((priority << (8U - __NVIC_PRIO_BITS)) & (uint32_t)0xFFUL);
 8001384:	f000 000f 	andlt.w	r0, r0, #15
    NVIC->IP[((uint32_t)IRQn)]               = (uint8_t)((priority << (8U - __NVIC_PRIO_BITS)) & (uint32_t)0xFFUL);
 8001388:	f880 3300 	strbge.w	r3, [r0, #768]	; 0x300
    SCB->SHP[(((uint32_t)IRQn) & 0xFUL)-4UL] = (uint8_t)((priority << (8U - __NVIC_PRIO_BITS)) & (uint32_t)0xFFUL);
 800138c:	5413      	strblt	r3, [r2, r0]
  assert_param(IS_NVIC_PREEMPTION_PRIORITY(PreemptPriority));
  
  prioritygroup = NVIC_GetPriorityGrouping();
  
  NVIC_SetPriority(IRQn, NVIC_EncodePriority(prioritygroup, PreemptPriority, SubPriority));
}
 800138e:	bd70      	pop	{r4, r5, r6, pc}
 8001390:	e000ed00 	.word	0xe000ed00
 8001394:	e000ed14 	.word	0xe000ed14

08001398 <HAL_NVIC_EnableIRQ>:
  if ((int32_t)(IRQn) >= 0)
 8001398:	2800      	cmp	r0, #0
 800139a:	db08      	blt.n	80013ae <HAL_NVIC_EnableIRQ+0x16>
    NVIC->ISER[(((uint32_t)IRQn) >> 5UL)] = (uint32_t)(1UL << (((uint32_t)IRQn) & 0x1FUL));
 800139c:	2301      	movs	r3, #1
 800139e:	0942      	lsrs	r2, r0, #5
 80013a0:	f000 001f 	and.w	r0, r0, #31
 80013a4:	fa03 f000 	lsl.w	r0, r3, r0
 80013a8:	4b01      	ldr	r3, [pc, #4]	; (80013b0 <HAL_NVIC_EnableIRQ+0x18>)
 80013aa:	f843 0022 	str.w	r0, [r3, r2, lsl #2]
  /* Check the parameters */
  assert_param(IS_NVIC_DEVICE_IRQ(IRQn));

  /* Enable interrupt */
  NVIC_EnableIRQ(IRQn);
}
 80013ae:	4770      	bx	lr
 80013b0:	e000e100 	.word	0xe000e100

080013b4 <HAL_SYSTICK_Config>:
           function <b>SysTick_Config</b> is not included. In this case, the file <b><i>device</i>.h</b>
           must contain a vendor-specific implementation of this function.
 */
__STATIC_INLINE uint32_t SysTick_Config(uint32_t ticks)
{
  if ((ticks - 1UL) > SysTick_LOAD_RELOAD_Msk)
 80013b4:	3801      	subs	r0, #1
 80013b6:	f1b0 7f80 	cmp.w	r0, #16777216	; 0x1000000
 80013ba:	d20a      	bcs.n	80013d2 <HAL_SYSTICK_Config+0x1e>
    SCB->SHP[(((uint32_t)IRQn) & 0xFUL)-4UL] = (uint8_t)((priority << (8U - __NVIC_PRIO_BITS)) & (uint32_t)0xFFUL);
 80013bc:	21f0      	movs	r1, #240	; 0xf0
  {
    return (1UL);                                                   /* Reload value impossible */
  }

  SysTick->LOAD  = (uint32_t)(ticks - 1UL);                         /* set reload register */
 80013be:	4b06      	ldr	r3, [pc, #24]	; (80013d8 <HAL_SYSTICK_Config+0x24>)
    SCB->SHP[(((uint32_t)IRQn) & 0xFUL)-4UL] = (uint8_t)((priority << (8U - __NVIC_PRIO_BITS)) & (uint32_t)0xFFUL);
 80013c0:	4a06      	ldr	r2, [pc, #24]	; (80013dc <HAL_SYSTICK_Config+0x28>)
  SysTick->LOAD  = (uint32_t)(ticks - 1UL);                         /* set reload register */
 80013c2:	6058      	str	r0, [r3, #4]
    SCB->SHP[(((uint32_t)IRQn) & 0xFUL)-4UL] = (uint8_t)((priority << (8U - __NVIC_PRIO_BITS)) & (uint32_t)0xFFUL);
 80013c4:	f882 1023 	strb.w	r1, [r2, #35]	; 0x23
  NVIC_SetPriority (SysTick_IRQn, (1UL << __NVIC_PRIO_BITS) - 1UL); /* set Priority for Systick Interrupt */
  SysTick->VAL   = 0UL;                                             /* Load the SysTick Counter Value */
 80013c8:	2000      	movs	r0, #0
  SysTick->CTRL  = SysTick_CTRL_CLKSOURCE_Msk |
 80013ca:	2207      	movs	r2, #7
  SysTick->VAL   = 0UL;                                             /* Load the SysTick Counter Value */
 80013cc:	6098      	str	r0, [r3, #8]
  SysTick->CTRL  = SysTick_CTRL_CLKSOURCE_Msk |
 80013ce:	601a      	str	r2, [r3, #0]
 80013d0:	4770      	bx	lr
    return (1UL);                                                   /* Reload value impossible */
 80013d2:	2001      	movs	r0, #1
  *                  - 1  Function failed.
  */
uint32_t HAL_SYSTICK_Config(uint32_t TicksNumb)
{
   return SysTick_Config(TicksNumb);
}
 80013d4:	4770      	bx	lr
 80013d6:	bf00      	nop
 80013d8:	e000e010 	.word	0xe000e010
 80013dc:	e000ed00 	.word	0xe000ed00

080013e0 <HAL_DMA_Init>:
  * @param  hdma: Pointer to a DMA_HandleTypeDef structure that contains
  *               the configuration information for the specified DMA Channel.
  * @retval HAL status
  */
HAL_StatusTypeDef HAL_DMA_Init(DMA_HandleTypeDef *hdma)
{
 80013e0:	b510      	push	{r4, lr}
  uint32_t tmp = 0U;

  /* Check the DMA handle allocation */
  if(hdma == NULL)
 80013e2:	b330      	cbz	r0, 8001432 <HAL_DMA_Init+0x52>
    hdma->ChannelIndex = (((uint32_t)hdma->Instance - (uint32_t)DMA2_Channel1) / ((uint32_t)DMA2_Channel2 - (uint32_t)DMA2_Channel1)) << 2;
    hdma->DmaBaseAddress = DMA2;
  }
#else
  /* DMA1 */
  hdma->ChannelIndex = (((uint32_t)hdma->Instance - (uint32_t)DMA1_Channel1) / ((uint32_t)DMA1_Channel2 - (uint32_t)DMA1_Channel1)) << 2;
 80013e4:	2214      	movs	r2, #20
 80013e6:	6801      	ldr	r1, [r0, #0]
 80013e8:	4b13      	ldr	r3, [pc, #76]	; (8001438 <HAL_DMA_Init+0x58>)
 80013ea:	440b      	add	r3, r1
 80013ec:	fbb3 f3f2 	udiv	r3, r3, r2
 80013f0:	009b      	lsls	r3, r3, #2
 80013f2:	6403      	str	r3, [r0, #64]	; 0x40
  hdma->DmaBaseAddress = DMA1;
 80013f4:	4b11      	ldr	r3, [pc, #68]	; (800143c <HAL_DMA_Init+0x5c>)

  /* Change DMA peripheral state */
  hdma->State = HAL_DMA_STATE_BUSY;

  /* Get the CR register value */
  tmp = hdma->Instance->CCR;
 80013f6:	680a      	ldr	r2, [r1, #0]
  hdma->DmaBaseAddress = DMA1;
 80013f8:	63c3      	str	r3, [r0, #60]	; 0x3c
  tmp &= ((uint32_t)~(DMA_CCR_PL    | DMA_CCR_MSIZE  | DMA_CCR_PSIZE  | \
                      DMA_CCR_MINC  | DMA_CCR_PINC   | DMA_CCR_CIRC   | \
                      DMA_CCR_DIR));

  /* Prepare the DMA Channel configuration */
  tmp |=  hdma->Init.Direction        |
 80013fa:	e9d0 3401 	ldrd	r3, r4, [r0, #4]
 80013fe:	4323      	orrs	r3, r4
          hdma->Init.PeriphInc           | hdma->Init.MemInc           |
 8001400:	68c4      	ldr	r4, [r0, #12]
  tmp &= ((uint32_t)~(DMA_CCR_PL    | DMA_CCR_MSIZE  | DMA_CCR_PSIZE  | \
 8001402:	f422 527f 	bic.w	r2, r2, #16320	; 0x3fc0
          hdma->Init.PeriphInc           | hdma->Init.MemInc           |
 8001406:	4323      	orrs	r3, r4
 8001408:	6904      	ldr	r4, [r0, #16]
  tmp &= ((uint32_t)~(DMA_CCR_PL    | DMA_CCR_MSIZE  | DMA_CCR_PSIZE  | \
 800140a:	f022 0230 	bic.w	r2, r2, #48	; 0x30
          hdma->Init.PeriphInc           | hdma->Init.MemInc           |
 800140e:	4323      	orrs	r3, r4
          hdma->Init.PeriphDataAlignment | hdma->Init.MemDataAlignment |
 8001410:	6944      	ldr	r4, [r0, #20]
 8001412:	4323      	orrs	r3, r4
 8001414:	6984      	ldr	r4, [r0, #24]
 8001416:	4323      	orrs	r3, r4
          hdma->Init.Mode                | hdma->Init.Priority;
 8001418:	69c4      	ldr	r4, [r0, #28]
 800141a:	4323      	orrs	r3, r4
  tmp |=  hdma->Init.Direction        |
 800141c:	4313      	orrs	r3, r2

  /* Write to DMA Channel CR register */
  hdma->Instance->CCR = tmp;
 800141e:	600b      	str	r3, [r1, #0]

  /* Initialise the error code */
  hdma->ErrorCode = HAL_DMA_ERROR_NONE;

  /* Initialize the DMA state*/
  hdma->State = HAL_DMA_STATE_READY;
 8001420:	2201      	movs	r2, #1
  hdma->ErrorCode = HAL_DMA_ERROR_NONE;
 8001422:	2300      	movs	r3, #0
  hdma->State = HAL_DMA_STATE_READY;
 8001424:	f880 2021 	strb.w	r2, [r0, #33]	; 0x21
  hdma->ErrorCode = HAL_DMA_ERROR_NONE;
 8001428:	6383      	str	r3, [r0, #56]	; 0x38
  /* Allocate lock resource and initialize it */
  hdma->Lock = HAL_UNLOCKED;
 800142a:	f880 3020 	strb.w	r3, [r0, #32]

  return HAL_OK;
 800142e:	4618      	mov	r0, r3
}
 8001430:	bd10      	pop	{r4, pc}
    return HAL_ERROR;
 8001432:	2001      	movs	r0, #1
 8001434:	e7fc      	b.n	8001430 <HAL_DMA_Init+0x50>
 8001436:	bf00      	nop
 8001438:	bffdfff8 	.word	0xbffdfff8
 800143c:	40020000 	.word	0x40020000

08001440 <HAL_DMA_IRQHandler>:
  * @param  hdma: pointer to a DMA_HandleTypeDef structure that contains
  *               the configuration information for the specified DMA Channel.  
  * @retval None
  */
void HAL_DMA_IRQHandler(DMA_HandleTypeDef *hdma)
{
 8001440:	b470      	push	{r4, r5, r6}
  uint32_t flag_it = hdma->DmaBaseAddress->ISR;
  uint32_t source_it = hdma->Instance->CCR;
  
  /* Half Transfer Complete Interrupt management ******************************/
  if (((flag_it & (DMA_FLAG_HT1 << hdma->ChannelIndex)) != RESET) && ((source_it & DMA_IT_HT) != RESET))
 8001442:	2504      	movs	r5, #4
  uint32_t flag_it = hdma->DmaBaseAddress->ISR;
 8001444:	6bc6      	ldr	r6, [r0, #60]	; 0x3c
  if (((flag_it & (DMA_FLAG_HT1 << hdma->ChannelIndex)) != RESET) && ((source_it & DMA_IT_HT) != RESET))
 8001446:	6c02      	ldr	r2, [r0, #64]	; 0x40
  uint32_t flag_it = hdma->DmaBaseAddress->ISR;
 8001448:	6834      	ldr	r4, [r6, #0]
  uint32_t source_it = hdma->Instance->CCR;
 800144a:	6803      	ldr	r3, [r0, #0]
  if (((flag_it & (DMA_FLAG_HT1 << hdma->ChannelIndex)) != RESET) && ((source_it & DMA_IT_HT) != RESET))
 800144c:	4095      	lsls	r5, r2
 800144e:	4225      	tst	r5, r4
  uint32_t source_it = hdma->Instance->CCR;
 8001450:	6819      	ldr	r1, [r3, #0]
  if (((flag_it & (DMA_FLAG_HT1 << hdma->ChannelIndex)) != RESET) && ((source_it & DMA_IT_HT) != RESET))
 8001452:	d032      	beq.n	80014ba <HAL_DMA_IRQHandler+0x7a>
 8001454:	074d      	lsls	r5, r1, #29
 8001456:	d530      	bpl.n	80014ba <HAL_DMA_IRQHandler+0x7a>
  {
    /* Disable the half transfer interrupt if the DMA mode is not CIRCULAR */
    if((hdma->Instance->CCR & DMA_CCR_CIRC) == 0U)
 8001458:	681a      	ldr	r2, [r3, #0]
 800145a:	0696      	lsls	r6, r2, #26
    {
      /* Disable the half transfer interrupt */
      __HAL_DMA_DISABLE_IT(hdma, DMA_IT_HT);
 800145c:	bf5e      	ittt	pl
 800145e:	681a      	ldrpl	r2, [r3, #0]
 8001460:	f022 0204 	bicpl.w	r2, r2, #4
 8001464:	601a      	strpl	r2, [r3, #0]
    }
    /* Clear the half transfer complete flag */
    __HAL_DMA_CLEAR_FLAG(hdma, __HAL_DMA_GET_HT_FLAG_INDEX(hdma));
 8001466:	4a3e      	ldr	r2, [pc, #248]	; (8001560 <HAL_DMA_IRQHandler+0x120>)
 8001468:	4293      	cmp	r3, r2
 800146a:	d019      	beq.n	80014a0 <HAL_DMA_IRQHandler+0x60>
 800146c:	3214      	adds	r2, #20
 800146e:	4293      	cmp	r3, r2
 8001470:	d018      	beq.n	80014a4 <HAL_DMA_IRQHandler+0x64>
 8001472:	3214      	adds	r2, #20
 8001474:	4293      	cmp	r3, r2
 8001476:	d017      	beq.n	80014a8 <HAL_DMA_IRQHandler+0x68>
 8001478:	3214      	adds	r2, #20
 800147a:	4293      	cmp	r3, r2
 800147c:	d017      	beq.n	80014ae <HAL_DMA_IRQHandler+0x6e>
 800147e:	3214      	adds	r2, #20
 8001480:	4293      	cmp	r3, r2
 8001482:	d017      	beq.n	80014b4 <HAL_DMA_IRQHandler+0x74>
 8001484:	3214      	adds	r2, #20
 8001486:	4293      	cmp	r3, r2
 8001488:	bf0c      	ite	eq
 800148a:	f44f 0380 	moveq.w	r3, #4194304	; 0x400000
 800148e:	f04f 6380 	movne.w	r3, #67108864	; 0x4000000
 8001492:	4a34      	ldr	r2, [pc, #208]	; (8001564 <HAL_DMA_IRQHandler+0x124>)
 8001494:	6053      	str	r3, [r2, #4]

    /* DMA peripheral state is not updated in Half Transfer */
    /* but in Transfer Complete case */

    if(hdma->XferHalfCpltCallback != NULL)
 8001496:	6ac3      	ldr	r3, [r0, #44]	; 0x2c
    hdma->State = HAL_DMA_STATE_READY;

    /* Process Unlocked */
    __HAL_UNLOCK(hdma);

    if (hdma->XferErrorCallback != NULL)
 8001498:	2b00      	cmp	r3, #0
 800149a:	d05e      	beq.n	800155a <HAL_DMA_IRQHandler+0x11a>
      /* Transfer error callback */
      hdma->XferErrorCallback(hdma);
    }
  }
  return;
}
 800149c:	bc70      	pop	{r4, r5, r6}
      hdma->XferErrorCallback(hdma);
 800149e:	4718      	bx	r3
    __HAL_DMA_CLEAR_FLAG(hdma, __HAL_DMA_GET_HT_FLAG_INDEX(hdma));
 80014a0:	2304      	movs	r3, #4
 80014a2:	e7f6      	b.n	8001492 <HAL_DMA_IRQHandler+0x52>
 80014a4:	2340      	movs	r3, #64	; 0x40
 80014a6:	e7f4      	b.n	8001492 <HAL_DMA_IRQHandler+0x52>
 80014a8:	f44f 6380 	mov.w	r3, #1024	; 0x400
 80014ac:	e7f1      	b.n	8001492 <HAL_DMA_IRQHandler+0x52>
 80014ae:	f44f 4380 	mov.w	r3, #16384	; 0x4000
 80014b2:	e7ee      	b.n	8001492 <HAL_DMA_IRQHandler+0x52>
 80014b4:	f44f 2380 	mov.w	r3, #262144	; 0x40000
 80014b8:	e7eb      	b.n	8001492 <HAL_DMA_IRQHandler+0x52>
  else if (((flag_it & (DMA_FLAG_TC1 << hdma->ChannelIndex)) != RESET) && ((source_it & DMA_IT_TC) != RESET))
 80014ba:	2502      	movs	r5, #2
 80014bc:	4095      	lsls	r5, r2
 80014be:	4225      	tst	r5, r4
 80014c0:	d035      	beq.n	800152e <HAL_DMA_IRQHandler+0xee>
 80014c2:	078d      	lsls	r5, r1, #30
 80014c4:	d533      	bpl.n	800152e <HAL_DMA_IRQHandler+0xee>
    if((hdma->Instance->CCR & DMA_CCR_CIRC) == 0U)
 80014c6:	681a      	ldr	r2, [r3, #0]
 80014c8:	0694      	lsls	r4, r2, #26
 80014ca:	d406      	bmi.n	80014da <HAL_DMA_IRQHandler+0x9a>
      __HAL_DMA_DISABLE_IT(hdma, DMA_IT_TE | DMA_IT_TC);  
 80014cc:	681a      	ldr	r2, [r3, #0]
 80014ce:	f022 020a 	bic.w	r2, r2, #10
 80014d2:	601a      	str	r2, [r3, #0]
      hdma->State = HAL_DMA_STATE_READY;
 80014d4:	2201      	movs	r2, #1
 80014d6:	f880 2021 	strb.w	r2, [r0, #33]	; 0x21
      __HAL_DMA_CLEAR_FLAG(hdma, __HAL_DMA_GET_TC_FLAG_INDEX(hdma));
 80014da:	4a21      	ldr	r2, [pc, #132]	; (8001560 <HAL_DMA_IRQHandler+0x120>)
 80014dc:	4293      	cmp	r3, r2
 80014de:	d019      	beq.n	8001514 <HAL_DMA_IRQHandler+0xd4>
 80014e0:	3214      	adds	r2, #20
 80014e2:	4293      	cmp	r3, r2
 80014e4:	d018      	beq.n	8001518 <HAL_DMA_IRQHandler+0xd8>
 80014e6:	3214      	adds	r2, #20
 80014e8:	4293      	cmp	r3, r2
 80014ea:	d017      	beq.n	800151c <HAL_DMA_IRQHandler+0xdc>
 80014ec:	3214      	adds	r2, #20
 80014ee:	4293      	cmp	r3, r2
 80014f0:	d017      	beq.n	8001522 <HAL_DMA_IRQHandler+0xe2>
 80014f2:	3214      	adds	r2, #20
 80014f4:	4293      	cmp	r3, r2
 80014f6:	d017      	beq.n	8001528 <HAL_DMA_IRQHandler+0xe8>
 80014f8:	3214      	adds	r2, #20
 80014fa:	4293      	cmp	r3, r2
 80014fc:	bf0c      	ite	eq
 80014fe:	f44f 1300 	moveq.w	r3, #2097152	; 0x200000
 8001502:	f04f 7300 	movne.w	r3, #33554432	; 0x2000000
 8001506:	4a17      	ldr	r2, [pc, #92]	; (8001564 <HAL_DMA_IRQHandler+0x124>)
 8001508:	6053      	str	r3, [r2, #4]
    __HAL_UNLOCK(hdma);
 800150a:	2300      	movs	r3, #0
 800150c:	f880 3020 	strb.w	r3, [r0, #32]
    if(hdma->XferCpltCallback != NULL)
 8001510:	6a83      	ldr	r3, [r0, #40]	; 0x28
 8001512:	e7c1      	b.n	8001498 <HAL_DMA_IRQHandler+0x58>
      __HAL_DMA_CLEAR_FLAG(hdma, __HAL_DMA_GET_TC_FLAG_INDEX(hdma));
 8001514:	2302      	movs	r3, #2
 8001516:	e7f6      	b.n	8001506 <HAL_DMA_IRQHandler+0xc6>
 8001518:	2320      	movs	r3, #32
 800151a:	e7f4      	b.n	8001506 <HAL_DMA_IRQHandler+0xc6>
 800151c:	f44f 7300 	mov.w	r3, #512	; 0x200
 8001520:	e7f1      	b.n	8001506 <HAL_DMA_IRQHandler+0xc6>
 8001522:	f44f 5300 	mov.w	r3, #8192	; 0x2000
 8001526:	e7ee      	b.n	8001506 <HAL_DMA_IRQHandler+0xc6>
 8001528:	f44f 3300 	mov.w	r3, #131072	; 0x20000
 800152c:	e7eb      	b.n	8001506 <HAL_DMA_IRQHandler+0xc6>
  else if (( RESET != (flag_it & (DMA_FLAG_TE1 << hdma->ChannelIndex))) && (RESET != (source_it & DMA_IT_TE)))
 800152e:	2508      	movs	r5, #8
 8001530:	4095      	lsls	r5, r2
 8001532:	4225      	tst	r5, r4
 8001534:	d011      	beq.n	800155a <HAL_DMA_IRQHandler+0x11a>
 8001536:	0709      	lsls	r1, r1, #28
 8001538:	d50f      	bpl.n	800155a <HAL_DMA_IRQHandler+0x11a>
    __HAL_DMA_DISABLE_IT(hdma, (DMA_IT_TC | DMA_IT_HT | DMA_IT_TE));
 800153a:	6819      	ldr	r1, [r3, #0]
 800153c:	f021 010e 	bic.w	r1, r1, #14
 8001540:	6019      	str	r1, [r3, #0]
    hdma->DmaBaseAddress->IFCR = (DMA_ISR_GIF1 << hdma->ChannelIndex);
 8001542:	2301      	movs	r3, #1
 8001544:	fa03 f202 	lsl.w	r2, r3, r2
 8001548:	6072      	str	r2, [r6, #4]
    hdma->ErrorCode = HAL_DMA_ERROR_TE;
 800154a:	6383      	str	r3, [r0, #56]	; 0x38
    hdma->State = HAL_DMA_STATE_READY;
 800154c:	f880 3021 	strb.w	r3, [r0, #33]	; 0x21
    __HAL_UNLOCK(hdma);
 8001550:	2300      	movs	r3, #0
 8001552:	f880 3020 	strb.w	r3, [r0, #32]
    if (hdma->XferErrorCallback != NULL)
 8001556:	6b03      	ldr	r3, [r0, #48]	; 0x30
 8001558:	e79e      	b.n	8001498 <HAL_DMA_IRQHandler+0x58>
}
 800155a:	bc70      	pop	{r4, r5, r6}
 800155c:	4770      	bx	lr
 800155e:	bf00      	nop
 8001560:	40020008 	.word	0x40020008
 8001564:	40020000 	.word	0x40020000

08001568 <HAL_GPIO_Init>:
  * @param  GPIO_Init: pointer to a GPIO_InitTypeDef structure that contains
  *         the configuration information for the specified GPIO peripheral.
  * @retval None
  */
void HAL_GPIO_Init(GPIO_TypeDef  *GPIOx, GPIO_InitTypeDef *GPIO_Init)
{
 8001568:	e92d 4ff7 	stmdb	sp!, {r0, r1, r2, r4, r5, r6, r7, r8, r9, sl, fp, lr}
  uint32_t position = 0x00u;
  uint32_t ioposition;
  uint32_t iocurrent;
  uint32_t temp;
  uint32_t config = 0x00u;
 800156c:	2400      	movs	r4, #0
  uint32_t position = 0x00u;
 800156e:	4626      	mov	r6, r4
 8001570:	4b65      	ldr	r3, [pc, #404]	; (8001708 <HAL_GPIO_Init+0x1a0>)
    {
      /* Check the Alternate function parameters */
      assert_param(IS_GPIO_AF_INSTANCE(GPIOx));

      /* Based on the required mode, filling config variable with MODEy[1:0] and CNFy[3:2] corresponding bits */
      switch (GPIO_Init->Mode)
 8001572:	f8df c1a4 	ldr.w	ip, [pc, #420]	; 8001718 <HAL_GPIO_Init+0x1b0>
 8001576:	f8df e1a4 	ldr.w	lr, [pc, #420]	; 800171c <HAL_GPIO_Init+0x1b4>
  while (((GPIO_Init->Pin) >> position) != 0x00u)
 800157a:	680a      	ldr	r2, [r1, #0]
 800157c:	fa32 f506 	lsrs.w	r5, r2, r6
 8001580:	d102      	bne.n	8001588 <HAL_GPIO_Init+0x20>
      }
    }

	position++;
  }
}
 8001582:	b003      	add	sp, #12
 8001584:	e8bd 8ff0 	ldmia.w	sp!, {r4, r5, r6, r7, r8, r9, sl, fp, pc}
    ioposition = (0x01uL << position);
 8001588:	f04f 0801 	mov.w	r8, #1
 800158c:	fa08 f806 	lsl.w	r8, r8, r6
    iocurrent = (uint32_t)(GPIO_Init->Pin) & ioposition;
 8001590:	ea02 0208 	and.w	r2, r2, r8
    if (iocurrent == ioposition)
 8001594:	4590      	cmp	r8, r2
 8001596:	d17e      	bne.n	8001696 <HAL_GPIO_Init+0x12e>
      switch (GPIO_Init->Mode)
 8001598:	684d      	ldr	r5, [r1, #4]
 800159a:	2d12      	cmp	r5, #18
 800159c:	f000 80a9 	beq.w	80016f2 <HAL_GPIO_Init+0x18a>
 80015a0:	f200 8082 	bhi.w	80016a8 <HAL_GPIO_Init+0x140>
 80015a4:	2d02      	cmp	r5, #2
 80015a6:	f000 80a1 	beq.w	80016ec <HAL_GPIO_Init+0x184>
 80015aa:	d876      	bhi.n	800169a <HAL_GPIO_Init+0x132>
 80015ac:	2d00      	cmp	r5, #0
 80015ae:	f000 8088 	beq.w	80016c2 <HAL_GPIO_Init+0x15a>
 80015b2:	2d01      	cmp	r5, #1
 80015b4:	f000 8098 	beq.w	80016e8 <HAL_GPIO_Init+0x180>
      MODIFY_REG((*configregister), ((GPIO_CRL_MODE0 | GPIO_CRL_CNF0) << registeroffset), (config << registeroffset));
 80015b8:	f04f 090f 	mov.w	r9, #15
      configregister = (iocurrent < GPIO_PIN_8) ? &GPIOx->CRL     : &GPIOx->CRH;
 80015bc:	2aff      	cmp	r2, #255	; 0xff
 80015be:	bf93      	iteet	ls
 80015c0:	4682      	movls	sl, r0
 80015c2:	f106 4580 	addhi.w	r5, r6, #1073741824	; 0x40000000
 80015c6:	3d08      	subhi	r5, #8
 80015c8:	f8d0 b000 	ldrls.w	fp, [r0]
 80015cc:	bf92      	itee	ls
 80015ce:	00b5      	lslls	r5, r6, #2
 80015d0:	f8d0 b004 	ldrhi.w	fp, [r0, #4]
 80015d4:	00ad      	lslhi	r5, r5, #2
      MODIFY_REG((*configregister), ((GPIO_CRL_MODE0 | GPIO_CRL_CNF0) << registeroffset), (config << registeroffset));
 80015d6:	fa09 f805 	lsl.w	r8, r9, r5
 80015da:	ea2b 0808 	bic.w	r8, fp, r8
 80015de:	fa04 f505 	lsl.w	r5, r4, r5
      configregister = (iocurrent < GPIO_PIN_8) ? &GPIOx->CRL     : &GPIOx->CRH;
 80015e2:	bf88      	it	hi
 80015e4:	f100 0a04 	addhi.w	sl, r0, #4
      MODIFY_REG((*configregister), ((GPIO_CRL_MODE0 | GPIO_CRL_CNF0) << registeroffset), (config << registeroffset));
 80015e8:	ea48 0505 	orr.w	r5, r8, r5
 80015ec:	f8ca 5000 	str.w	r5, [sl]
      if ((GPIO_Init->Mode & EXTI_MODE) == EXTI_MODE)
 80015f0:	f8d1 a004 	ldr.w	sl, [r1, #4]
 80015f4:	f01a 5f80 	tst.w	sl, #268435456	; 0x10000000
 80015f8:	d04d      	beq.n	8001696 <HAL_GPIO_Init+0x12e>
        __HAL_RCC_AFIO_CLK_ENABLE();
 80015fa:	4f44      	ldr	r7, [pc, #272]	; (800170c <HAL_GPIO_Init+0x1a4>)
 80015fc:	f026 0803 	bic.w	r8, r6, #3
 8001600:	69bd      	ldr	r5, [r7, #24]
 8001602:	f108 4880 	add.w	r8, r8, #1073741824	; 0x40000000
 8001606:	f045 0501 	orr.w	r5, r5, #1
 800160a:	61bd      	str	r5, [r7, #24]
 800160c:	69bd      	ldr	r5, [r7, #24]
 800160e:	f508 3880 	add.w	r8, r8, #65536	; 0x10000
 8001612:	f005 0501 	and.w	r5, r5, #1
 8001616:	9501      	str	r5, [sp, #4]
        CLEAR_BIT(temp, (0x0Fu) << (4u * (position & 0x03u)));
 8001618:	f006 0b03 	and.w	fp, r6, #3
        __HAL_RCC_AFIO_CLK_ENABLE();
 800161c:	9d01      	ldr	r5, [sp, #4]
        CLEAR_BIT(temp, (0x0Fu) << (4u * (position & 0x03u)));
 800161e:	ea4f 0b8b 	mov.w	fp, fp, lsl #2
        temp = AFIO->EXTICR[position >> 2u];
 8001622:	f8d8 5008 	ldr.w	r5, [r8, #8]
        CLEAR_BIT(temp, (0x0Fu) << (4u * (position & 0x03u)));
 8001626:	fa09 f90b 	lsl.w	r9, r9, fp
 800162a:	ea25 0909 	bic.w	r9, r5, r9
        SET_BIT(temp, (GPIO_GET_INDEX(GPIOx)) << (4u * (position & 0x03u)));
 800162e:	4d38      	ldr	r5, [pc, #224]	; (8001710 <HAL_GPIO_Init+0x1a8>)
 8001630:	42a8      	cmp	r0, r5
 8001632:	d063      	beq.n	80016fc <HAL_GPIO_Init+0x194>
 8001634:	f505 6580 	add.w	r5, r5, #1024	; 0x400
 8001638:	42a8      	cmp	r0, r5
 800163a:	d061      	beq.n	8001700 <HAL_GPIO_Init+0x198>
 800163c:	f505 6580 	add.w	r5, r5, #1024	; 0x400
 8001640:	42a8      	cmp	r0, r5
 8001642:	d05f      	beq.n	8001704 <HAL_GPIO_Init+0x19c>
 8001644:	f505 6580 	add.w	r5, r5, #1024	; 0x400
 8001648:	42a8      	cmp	r0, r5
 800164a:	bf0c      	ite	eq
 800164c:	2503      	moveq	r5, #3
 800164e:	2504      	movne	r5, #4
 8001650:	fa05 f50b 	lsl.w	r5, r5, fp
 8001654:	ea45 0509 	orr.w	r5, r5, r9
        AFIO->EXTICR[position >> 2u] = temp;
 8001658:	f8c8 5008 	str.w	r5, [r8, #8]
          SET_BIT(EXTI->IMR, iocurrent);
 800165c:	681d      	ldr	r5, [r3, #0]
        if ((GPIO_Init->Mode & GPIO_MODE_IT) == GPIO_MODE_IT)
 800165e:	f41a 3f80 	tst.w	sl, #65536	; 0x10000
          SET_BIT(EXTI->IMR, iocurrent);
 8001662:	bf14      	ite	ne
 8001664:	4315      	orrne	r5, r2
          CLEAR_BIT(EXTI->IMR, iocurrent);
 8001666:	4395      	biceq	r5, r2
 8001668:	601d      	str	r5, [r3, #0]
          SET_BIT(EXTI->EMR, iocurrent);
 800166a:	685d      	ldr	r5, [r3, #4]
        if ((GPIO_Init->Mode & GPIO_MODE_EVT) == GPIO_MODE_EVT)
 800166c:	f41a 3f00 	tst.w	sl, #131072	; 0x20000
          SET_BIT(EXTI->EMR, iocurrent);
 8001670:	bf14      	ite	ne
 8001672:	4315      	orrne	r5, r2
          CLEAR_BIT(EXTI->EMR, iocurrent);
 8001674:	4395      	biceq	r5, r2
 8001676:	605d      	str	r5, [r3, #4]
          SET_BIT(EXTI->RTSR, iocurrent);
 8001678:	689d      	ldr	r5, [r3, #8]
        if ((GPIO_Init->Mode & RISING_EDGE) == RISING_EDGE)
 800167a:	f41a 1f80 	tst.w	sl, #1048576	; 0x100000
          SET_BIT(EXTI->RTSR, iocurrent);
 800167e:	bf14      	ite	ne
 8001680:	4315      	orrne	r5, r2
          CLEAR_BIT(EXTI->RTSR, iocurrent);
 8001682:	4395      	biceq	r5, r2
 8001684:	609d      	str	r5, [r3, #8]
          SET_BIT(EXTI->FTSR, iocurrent);
 8001686:	68dd      	ldr	r5, [r3, #12]
        if ((GPIO_Init->Mode & FALLING_EDGE) == FALLING_EDGE)
 8001688:	f41a 1f00 	tst.w	sl, #2097152	; 0x200000
          SET_BIT(EXTI->FTSR, iocurrent);
 800168c:	bf14      	ite	ne
 800168e:	432a      	orrne	r2, r5
          CLEAR_BIT(EXTI->FTSR, iocurrent);
 8001690:	ea25 0202 	biceq.w	r2, r5, r2
 8001694:	60da      	str	r2, [r3, #12]
	position++;
 8001696:	3601      	adds	r6, #1
 8001698:	e76f      	b.n	800157a <HAL_GPIO_Init+0x12>
      switch (GPIO_Init->Mode)
 800169a:	2d03      	cmp	r5, #3
 800169c:	d022      	beq.n	80016e4 <HAL_GPIO_Init+0x17c>
 800169e:	2d11      	cmp	r5, #17
 80016a0:	d18a      	bne.n	80015b8 <HAL_GPIO_Init+0x50>
          config = GPIO_Init->Speed + GPIO_CR_CNF_GP_OUTPUT_OD;
 80016a2:	68cc      	ldr	r4, [r1, #12]
 80016a4:	3404      	adds	r4, #4
          break;
 80016a6:	e787      	b.n	80015b8 <HAL_GPIO_Init+0x50>
      switch (GPIO_Init->Mode)
 80016a8:	4f1a      	ldr	r7, [pc, #104]	; (8001714 <HAL_GPIO_Init+0x1ac>)
 80016aa:	42bd      	cmp	r5, r7
 80016ac:	d009      	beq.n	80016c2 <HAL_GPIO_Init+0x15a>
 80016ae:	d812      	bhi.n	80016d6 <HAL_GPIO_Init+0x16e>
 80016b0:	f8df 906c 	ldr.w	r9, [pc, #108]	; 8001720 <HAL_GPIO_Init+0x1b8>
 80016b4:	454d      	cmp	r5, r9
 80016b6:	d004      	beq.n	80016c2 <HAL_GPIO_Init+0x15a>
 80016b8:	f509 3980 	add.w	r9, r9, #65536	; 0x10000
 80016bc:	454d      	cmp	r5, r9
 80016be:	f47f af7b 	bne.w	80015b8 <HAL_GPIO_Init+0x50>
          if (GPIO_Init->Pull == GPIO_NOPULL)
 80016c2:	688c      	ldr	r4, [r1, #8]
 80016c4:	b1c4      	cbz	r4, 80016f8 <HAL_GPIO_Init+0x190>
          else if (GPIO_Init->Pull == GPIO_PULLUP)
 80016c6:	2c01      	cmp	r4, #1
            GPIOx->BSRR = ioposition;
 80016c8:	bf0c      	ite	eq
 80016ca:	f8c0 8010 	streq.w	r8, [r0, #16]
            GPIOx->BRR = ioposition;
 80016ce:	f8c0 8014 	strne.w	r8, [r0, #20]
            config = GPIO_CR_MODE_INPUT + GPIO_CR_CNF_INPUT_PU_PD;
 80016d2:	2408      	movs	r4, #8
 80016d4:	e770      	b.n	80015b8 <HAL_GPIO_Init+0x50>
      switch (GPIO_Init->Mode)
 80016d6:	4565      	cmp	r5, ip
 80016d8:	d0f3      	beq.n	80016c2 <HAL_GPIO_Init+0x15a>
 80016da:	4575      	cmp	r5, lr
 80016dc:	d0f1      	beq.n	80016c2 <HAL_GPIO_Init+0x15a>
 80016de:	f8df 9044 	ldr.w	r9, [pc, #68]	; 8001724 <HAL_GPIO_Init+0x1bc>
 80016e2:	e7eb      	b.n	80016bc <HAL_GPIO_Init+0x154>
          config = GPIO_CR_MODE_INPUT + GPIO_CR_CNF_ANALOG;
 80016e4:	2400      	movs	r4, #0
 80016e6:	e767      	b.n	80015b8 <HAL_GPIO_Init+0x50>
          config = GPIO_Init->Speed + GPIO_CR_CNF_GP_OUTPUT_PP;
 80016e8:	68cc      	ldr	r4, [r1, #12]
          break;
 80016ea:	e765      	b.n	80015b8 <HAL_GPIO_Init+0x50>
          config = GPIO_Init->Speed + GPIO_CR_CNF_AF_OUTPUT_PP;
 80016ec:	68cc      	ldr	r4, [r1, #12]
 80016ee:	3408      	adds	r4, #8
          break;
 80016f0:	e762      	b.n	80015b8 <HAL_GPIO_Init+0x50>
          config = GPIO_Init->Speed + GPIO_CR_CNF_AF_OUTPUT_OD;
 80016f2:	68cc      	ldr	r4, [r1, #12]
 80016f4:	340c      	adds	r4, #12
          break;
 80016f6:	e75f      	b.n	80015b8 <HAL_GPIO_Init+0x50>
            config = GPIO_CR_MODE_INPUT + GPIO_CR_CNF_INPUT_FLOATING;
 80016f8:	2404      	movs	r4, #4
 80016fa:	e75d      	b.n	80015b8 <HAL_GPIO_Init+0x50>
        SET_BIT(temp, (GPIO_GET_INDEX(GPIOx)) << (4u * (position & 0x03u)));
 80016fc:	2500      	movs	r5, #0
 80016fe:	e7a7      	b.n	8001650 <HAL_GPIO_Init+0xe8>
 8001700:	2501      	movs	r5, #1
 8001702:	e7a5      	b.n	8001650 <HAL_GPIO_Init+0xe8>
 8001704:	2502      	movs	r5, #2
 8001706:	e7a3      	b.n	8001650 <HAL_GPIO_Init+0xe8>
 8001708:	40010400 	.word	0x40010400
 800170c:	40021000 	.word	0x40021000
 8001710:	40010800 	.word	0x40010800
 8001714:	10210000 	.word	0x10210000
 8001718:	10310000 	.word	0x10310000
 800171c:	10320000 	.word	0x10320000
 8001720:	10110000 	.word	0x10110000
 8001724:	10220000 	.word	0x10220000

08001728 <HAL_GPIO_ReadPin>:
  GPIO_PinState bitstatus;

  /* Check the parameters */
  assert_param(IS_GPIO_PIN(GPIO_Pin));

  if ((GPIOx->IDR & GPIO_Pin) != (uint32_t)GPIO_PIN_RESET)
 8001728:	6883      	ldr	r3, [r0, #8]
 800172a:	4219      	tst	r1, r3
  else
  {
    bitstatus = GPIO_PIN_RESET;
  }
  return bitstatus;
}
 800172c:	bf14      	ite	ne
 800172e:	2001      	movne	r0, #1
 8001730:	2000      	moveq	r0, #0
 8001732:	4770      	bx	lr

08001734 <HAL_GPIO_WritePin>:
{
  /* Check the parameters */
  assert_param(IS_GPIO_PIN(GPIO_Pin));
  assert_param(IS_GPIO_PIN_ACTION(PinState));

  if (PinState != GPIO_PIN_RESET)
 8001734:	b10a      	cbz	r2, 800173a <HAL_GPIO_WritePin+0x6>
  {
    GPIOx->BSRR = GPIO_Pin;
  }
  else
  {
    GPIOx->BSRR = (uint32_t)GPIO_Pin << 16u;
 8001736:	6101      	str	r1, [r0, #16]
  }
}
 8001738:	4770      	bx	lr
    GPIOx->BSRR = (uint32_t)GPIO_Pin << 16u;
 800173a:	0409      	lsls	r1, r1, #16
 800173c:	e7fb      	b.n	8001736 <HAL_GPIO_WritePin+0x2>

0800173e <HAL_GPIO_TogglePin>:
void HAL_GPIO_TogglePin(GPIO_TypeDef *GPIOx, uint16_t GPIO_Pin)
{
  /* Check the parameters */
  assert_param(IS_GPIO_PIN(GPIO_Pin));

  if ((GPIOx->ODR & GPIO_Pin) != 0x00u)
 800173e:	68c3      	ldr	r3, [r0, #12]
 8001740:	420b      	tst	r3, r1
  {
    GPIOx->BRR = (uint32_t)GPIO_Pin;
 8001742:	bf14      	ite	ne
 8001744:	6141      	strne	r1, [r0, #20]
  }
  else
  {
    GPIOx->BSRR = (uint32_t)GPIO_Pin;
 8001746:	6101      	streq	r1, [r0, #16]
  }
}
 8001748:	4770      	bx	lr
	...

0800174c <HAL_GPIO_EXTI_IRQHandler>:
  * @brief  This function handles EXTI interrupt request.
  * @param  GPIO_Pin: Specifies the pins connected EXTI line
  * @retval None
  */
void HAL_GPIO_EXTI_IRQHandler(uint16_t GPIO_Pin)
{
 800174c:	b508      	push	{r3, lr}
  /* EXTI line interrupt detected */
  if (__HAL_GPIO_EXTI_GET_IT(GPIO_Pin) != 0x00u)
 800174e:	4b04      	ldr	r3, [pc, #16]	; (8001760 <HAL_GPIO_EXTI_IRQHandler+0x14>)
 8001750:	6959      	ldr	r1, [r3, #20]
 8001752:	4201      	tst	r1, r0
 8001754:	d002      	beq.n	800175c <HAL_GPIO_EXTI_IRQHandler+0x10>
  {
    __HAL_GPIO_EXTI_CLEAR_IT(GPIO_Pin);
 8001756:	6158      	str	r0, [r3, #20]
    HAL_GPIO_EXTI_Callback(GPIO_Pin);
 8001758:	f7ff fcf0 	bl	800113c <HAL_GPIO_EXTI_Callback>
  }
}
 800175c:	bd08      	pop	{r3, pc}
 800175e:	bf00      	nop
 8001760:	40010400 	.word	0x40010400

08001764 <HAL_RCC_OscConfig>:
  *         supported by this macro. User should request a transition to HSE Off
  *         first and then HSE On or HSE Bypass.
  * @retval HAL status
  */
HAL_StatusTypeDef HAL_RCC_OscConfig(RCC_OscInitTypeDef  *RCC_OscInitStruct)
{
 8001764:	e92d 41f3 	stmdb	sp!, {r0, r1, r4, r5, r6, r7, r8, lr}
  uint32_t tickstart;
  uint32_t pll_config;

  /* Check Null pointer */
  if (RCC_OscInitStruct == NULL)
 8001768:	4605      	mov	r5, r0
 800176a:	b908      	cbnz	r0, 8001770 <HAL_RCC_OscConfig+0xc>
    else
    {
      /* Check if there is a request to disable the PLL used as System clock source */
      if ((RCC_OscInitStruct->PLL.PLLState) == RCC_PLL_OFF)
      {
        return HAL_ERROR;
 800176c:	2001      	movs	r0, #1
 800176e:	e03c      	b.n	80017ea <HAL_RCC_OscConfig+0x86>
  if (((RCC_OscInitStruct->OscillatorType) & RCC_OSCILLATORTYPE_HSE) == RCC_OSCILLATORTYPE_HSE)
 8001770:	6803      	ldr	r3, [r0, #0]
 8001772:	07db      	lsls	r3, r3, #31
 8001774:	d410      	bmi.n	8001798 <HAL_RCC_OscConfig+0x34>
  if (((RCC_OscInitStruct->OscillatorType) & RCC_OSCILLATORTYPE_HSI) == RCC_OSCILLATORTYPE_HSI)
 8001776:	682b      	ldr	r3, [r5, #0]
 8001778:	079f      	lsls	r7, r3, #30
 800177a:	d45d      	bmi.n	8001838 <HAL_RCC_OscConfig+0xd4>
  if (((RCC_OscInitStruct->OscillatorType) & RCC_OSCILLATORTYPE_LSI) == RCC_OSCILLATORTYPE_LSI)
 800177c:	682b      	ldr	r3, [r5, #0]
 800177e:	0719      	lsls	r1, r3, #28
 8001780:	f100 8094 	bmi.w	80018ac <HAL_RCC_OscConfig+0x148>
  if (((RCC_OscInitStruct->OscillatorType) & RCC_OSCILLATORTYPE_LSE) == RCC_OSCILLATORTYPE_LSE)
 8001784:	682b      	ldr	r3, [r5, #0]
 8001786:	075a      	lsls	r2, r3, #29
 8001788:	f100 80be 	bmi.w	8001908 <HAL_RCC_OscConfig+0x1a4>
  if ((RCC_OscInitStruct->PLL.PLLState) != RCC_PLL_NONE)
 800178c:	69e8      	ldr	r0, [r5, #28]
 800178e:	2800      	cmp	r0, #0
 8001790:	f040 812c 	bne.w	80019ec <HAL_RCC_OscConfig+0x288>
        }
      }
    }
  }

  return HAL_OK;
 8001794:	2000      	movs	r0, #0
 8001796:	e028      	b.n	80017ea <HAL_RCC_OscConfig+0x86>
    if ((__HAL_RCC_GET_SYSCLK_SOURCE() == RCC_SYSCLKSOURCE_STATUS_HSE)
 8001798:	4c8f      	ldr	r4, [pc, #572]	; (80019d8 <HAL_RCC_OscConfig+0x274>)
 800179a:	6863      	ldr	r3, [r4, #4]
 800179c:	f003 030c 	and.w	r3, r3, #12
 80017a0:	2b04      	cmp	r3, #4
 80017a2:	d007      	beq.n	80017b4 <HAL_RCC_OscConfig+0x50>
        || ((__HAL_RCC_GET_SYSCLK_SOURCE() == RCC_SYSCLKSOURCE_STATUS_PLLCLK) && (__HAL_RCC_GET_PLL_OSCSOURCE() == RCC_PLLSOURCE_HSE)))
 80017a4:	6863      	ldr	r3, [r4, #4]
 80017a6:	f003 030c 	and.w	r3, r3, #12
 80017aa:	2b08      	cmp	r3, #8
 80017ac:	d109      	bne.n	80017c2 <HAL_RCC_OscConfig+0x5e>
 80017ae:	6863      	ldr	r3, [r4, #4]
 80017b0:	03de      	lsls	r6, r3, #15
 80017b2:	d506      	bpl.n	80017c2 <HAL_RCC_OscConfig+0x5e>
      if ((__HAL_RCC_GET_FLAG(RCC_FLAG_HSERDY) != RESET) && (RCC_OscInitStruct->HSEState == RCC_HSE_OFF))
 80017b4:	6823      	ldr	r3, [r4, #0]
 80017b6:	039c      	lsls	r4, r3, #14
 80017b8:	d5dd      	bpl.n	8001776 <HAL_RCC_OscConfig+0x12>
 80017ba:	686b      	ldr	r3, [r5, #4]
 80017bc:	2b00      	cmp	r3, #0
 80017be:	d1da      	bne.n	8001776 <HAL_RCC_OscConfig+0x12>
 80017c0:	e7d4      	b.n	800176c <HAL_RCC_OscConfig+0x8>
      __HAL_RCC_HSE_CONFIG(RCC_OscInitStruct->HSEState);
 80017c2:	686b      	ldr	r3, [r5, #4]
 80017c4:	f5b3 3f80 	cmp.w	r3, #65536	; 0x10000
 80017c8:	d112      	bne.n	80017f0 <HAL_RCC_OscConfig+0x8c>
 80017ca:	6823      	ldr	r3, [r4, #0]
 80017cc:	f443 3380 	orr.w	r3, r3, #65536	; 0x10000
 80017d0:	6023      	str	r3, [r4, #0]
        tickstart = HAL_GetTick();
 80017d2:	f7ff fd83 	bl	80012dc <HAL_GetTick>
 80017d6:	4606      	mov	r6, r0
        while (__HAL_RCC_GET_FLAG(RCC_FLAG_HSERDY) == RESET)
 80017d8:	6823      	ldr	r3, [r4, #0]
 80017da:	0398      	lsls	r0, r3, #14
 80017dc:	d4cb      	bmi.n	8001776 <HAL_RCC_OscConfig+0x12>
          if ((HAL_GetTick() - tickstart) > HSE_TIMEOUT_VALUE)
 80017de:	f7ff fd7d 	bl	80012dc <HAL_GetTick>
 80017e2:	1b80      	subs	r0, r0, r6
 80017e4:	2864      	cmp	r0, #100	; 0x64
 80017e6:	d9f7      	bls.n	80017d8 <HAL_RCC_OscConfig+0x74>
            return HAL_TIMEOUT;
 80017e8:	2003      	movs	r0, #3
}
 80017ea:	b002      	add	sp, #8
 80017ec:	e8bd 81f0 	ldmia.w	sp!, {r4, r5, r6, r7, r8, pc}
      __HAL_RCC_HSE_CONFIG(RCC_OscInitStruct->HSEState);
 80017f0:	b99b      	cbnz	r3, 800181a <HAL_RCC_OscConfig+0xb6>
 80017f2:	6823      	ldr	r3, [r4, #0]
 80017f4:	f423 3380 	bic.w	r3, r3, #65536	; 0x10000
 80017f8:	6023      	str	r3, [r4, #0]
 80017fa:	6823      	ldr	r3, [r4, #0]
 80017fc:	f423 2380 	bic.w	r3, r3, #262144	; 0x40000
 8001800:	6023      	str	r3, [r4, #0]
        tickstart = HAL_GetTick();
 8001802:	f7ff fd6b 	bl	80012dc <HAL_GetTick>
 8001806:	4606      	mov	r6, r0
        while (__HAL_RCC_GET_FLAG(RCC_FLAG_HSERDY) != RESET)
 8001808:	6823      	ldr	r3, [r4, #0]
 800180a:	0399      	lsls	r1, r3, #14
 800180c:	d5b3      	bpl.n	8001776 <HAL_RCC_OscConfig+0x12>
          if ((HAL_GetTick() - tickstart) > HSE_TIMEOUT_VALUE)
 800180e:	f7ff fd65 	bl	80012dc <HAL_GetTick>
 8001812:	1b80      	subs	r0, r0, r6
 8001814:	2864      	cmp	r0, #100	; 0x64
 8001816:	d9f7      	bls.n	8001808 <HAL_RCC_OscConfig+0xa4>
 8001818:	e7e6      	b.n	80017e8 <HAL_RCC_OscConfig+0x84>
      __HAL_RCC_HSE_CONFIG(RCC_OscInitStruct->HSEState);
 800181a:	f5b3 2fa0 	cmp.w	r3, #327680	; 0x50000
 800181e:	6823      	ldr	r3, [r4, #0]
 8001820:	d103      	bne.n	800182a <HAL_RCC_OscConfig+0xc6>
 8001822:	f443 2380 	orr.w	r3, r3, #262144	; 0x40000
 8001826:	6023      	str	r3, [r4, #0]
 8001828:	e7cf      	b.n	80017ca <HAL_RCC_OscConfig+0x66>
 800182a:	f423 3380 	bic.w	r3, r3, #65536	; 0x10000
 800182e:	6023      	str	r3, [r4, #0]
 8001830:	6823      	ldr	r3, [r4, #0]
 8001832:	f423 2380 	bic.w	r3, r3, #262144	; 0x40000
 8001836:	e7cb      	b.n	80017d0 <HAL_RCC_OscConfig+0x6c>
    if ((__HAL_RCC_GET_SYSCLK_SOURCE() == RCC_SYSCLKSOURCE_STATUS_HSI)
 8001838:	4c67      	ldr	r4, [pc, #412]	; (80019d8 <HAL_RCC_OscConfig+0x274>)
 800183a:	6863      	ldr	r3, [r4, #4]
 800183c:	f013 0f0c 	tst.w	r3, #12
 8001840:	d007      	beq.n	8001852 <HAL_RCC_OscConfig+0xee>
        || ((__HAL_RCC_GET_SYSCLK_SOURCE() == RCC_SYSCLKSOURCE_STATUS_PLLCLK) && (__HAL_RCC_GET_PLL_OSCSOURCE() == RCC_PLLSOURCE_HSI_DIV2)))
 8001842:	6863      	ldr	r3, [r4, #4]
 8001844:	f003 030c 	and.w	r3, r3, #12
 8001848:	2b08      	cmp	r3, #8
 800184a:	d110      	bne.n	800186e <HAL_RCC_OscConfig+0x10a>
 800184c:	6863      	ldr	r3, [r4, #4]
 800184e:	03da      	lsls	r2, r3, #15
 8001850:	d40d      	bmi.n	800186e <HAL_RCC_OscConfig+0x10a>
      if ((__HAL_RCC_GET_FLAG(RCC_FLAG_HSIRDY) != RESET) && (RCC_OscInitStruct->HSIState != RCC_HSI_ON))
 8001852:	6823      	ldr	r3, [r4, #0]
 8001854:	079b      	lsls	r3, r3, #30
 8001856:	d502      	bpl.n	800185e <HAL_RCC_OscConfig+0xfa>
 8001858:	692b      	ldr	r3, [r5, #16]
 800185a:	2b01      	cmp	r3, #1
 800185c:	d186      	bne.n	800176c <HAL_RCC_OscConfig+0x8>
        __HAL_RCC_HSI_CALIBRATIONVALUE_ADJUST(RCC_OscInitStruct->HSICalibrationValue);
 800185e:	6823      	ldr	r3, [r4, #0]
 8001860:	696a      	ldr	r2, [r5, #20]
 8001862:	f023 03f8 	bic.w	r3, r3, #248	; 0xf8
 8001866:	ea43 03c2 	orr.w	r3, r3, r2, lsl #3
 800186a:	6023      	str	r3, [r4, #0]
 800186c:	e786      	b.n	800177c <HAL_RCC_OscConfig+0x18>
      if (RCC_OscInitStruct->HSIState != RCC_HSI_OFF)
 800186e:	692a      	ldr	r2, [r5, #16]
 8001870:	4b5a      	ldr	r3, [pc, #360]	; (80019dc <HAL_RCC_OscConfig+0x278>)
 8001872:	b16a      	cbz	r2, 8001890 <HAL_RCC_OscConfig+0x12c>
        __HAL_RCC_HSI_ENABLE();
 8001874:	2201      	movs	r2, #1
 8001876:	601a      	str	r2, [r3, #0]
        tickstart = HAL_GetTick();
 8001878:	f7ff fd30 	bl	80012dc <HAL_GetTick>
 800187c:	4606      	mov	r6, r0
        while (__HAL_RCC_GET_FLAG(RCC_FLAG_HSIRDY) == RESET)
 800187e:	6823      	ldr	r3, [r4, #0]
 8001880:	079f      	lsls	r7, r3, #30
 8001882:	d4ec      	bmi.n	800185e <HAL_RCC_OscConfig+0xfa>
          if ((HAL_GetTick() - tickstart) > HSI_TIMEOUT_VALUE)
 8001884:	f7ff fd2a 	bl	80012dc <HAL_GetTick>
 8001888:	1b80      	subs	r0, r0, r6
 800188a:	2802      	cmp	r0, #2
 800188c:	d9f7      	bls.n	800187e <HAL_RCC_OscConfig+0x11a>
 800188e:	e7ab      	b.n	80017e8 <HAL_RCC_OscConfig+0x84>
        __HAL_RCC_HSI_DISABLE();
 8001890:	601a      	str	r2, [r3, #0]
        tickstart = HAL_GetTick();
 8001892:	f7ff fd23 	bl	80012dc <HAL_GetTick>
 8001896:	4606      	mov	r6, r0
        while (__HAL_RCC_GET_FLAG(RCC_FLAG_HSIRDY) != RESET)
 8001898:	6823      	ldr	r3, [r4, #0]
 800189a:	0798      	lsls	r0, r3, #30
 800189c:	f57f af6e 	bpl.w	800177c <HAL_RCC_OscConfig+0x18>
          if ((HAL_GetTick() - tickstart) > HSI_TIMEOUT_VALUE)
 80018a0:	f7ff fd1c 	bl	80012dc <HAL_GetTick>
 80018a4:	1b80      	subs	r0, r0, r6
 80018a6:	2802      	cmp	r0, #2
 80018a8:	d9f6      	bls.n	8001898 <HAL_RCC_OscConfig+0x134>
 80018aa:	e79d      	b.n	80017e8 <HAL_RCC_OscConfig+0x84>
    if (RCC_OscInitStruct->LSIState != RCC_LSI_OFF)
 80018ac:	69aa      	ldr	r2, [r5, #24]
 80018ae:	4c4a      	ldr	r4, [pc, #296]	; (80019d8 <HAL_RCC_OscConfig+0x274>)
 80018b0:	4b4b      	ldr	r3, [pc, #300]	; (80019e0 <HAL_RCC_OscConfig+0x27c>)
 80018b2:	b1da      	cbz	r2, 80018ec <HAL_RCC_OscConfig+0x188>
      __HAL_RCC_LSI_ENABLE();
 80018b4:	2201      	movs	r2, #1
 80018b6:	601a      	str	r2, [r3, #0]
      tickstart = HAL_GetTick();
 80018b8:	f7ff fd10 	bl	80012dc <HAL_GetTick>
 80018bc:	4606      	mov	r6, r0
      while (__HAL_RCC_GET_FLAG(RCC_FLAG_LSIRDY) == RESET)
 80018be:	6a63      	ldr	r3, [r4, #36]	; 0x24
 80018c0:	079b      	lsls	r3, r3, #30
 80018c2:	d50d      	bpl.n	80018e0 <HAL_RCC_OscConfig+0x17c>
  * @param  mdelay: specifies the delay time length, in milliseconds.
  * @retval None
  */
static void RCC_Delay(uint32_t mdelay)
{
  __IO uint32_t Delay = mdelay * (SystemCoreClock / 8U / 1000U);
 80018c4:	f44f 52fa 	mov.w	r2, #8000	; 0x1f40
 80018c8:	4b46      	ldr	r3, [pc, #280]	; (80019e4 <HAL_RCC_OscConfig+0x280>)
 80018ca:	681b      	ldr	r3, [r3, #0]
 80018cc:	fbb3 f3f2 	udiv	r3, r3, r2
 80018d0:	9301      	str	r3, [sp, #4]
  do
  {
    __NOP();
 80018d2:	bf00      	nop
  }
  while (Delay --);
 80018d4:	9b01      	ldr	r3, [sp, #4]
 80018d6:	1e5a      	subs	r2, r3, #1
 80018d8:	9201      	str	r2, [sp, #4]
 80018da:	2b00      	cmp	r3, #0
 80018dc:	d1f9      	bne.n	80018d2 <HAL_RCC_OscConfig+0x16e>
 80018de:	e751      	b.n	8001784 <HAL_RCC_OscConfig+0x20>
        if ((HAL_GetTick() - tickstart) > LSI_TIMEOUT_VALUE)
 80018e0:	f7ff fcfc 	bl	80012dc <HAL_GetTick>
 80018e4:	1b80      	subs	r0, r0, r6
 80018e6:	2802      	cmp	r0, #2
 80018e8:	d9e9      	bls.n	80018be <HAL_RCC_OscConfig+0x15a>
 80018ea:	e77d      	b.n	80017e8 <HAL_RCC_OscConfig+0x84>
      __HAL_RCC_LSI_DISABLE();
 80018ec:	601a      	str	r2, [r3, #0]
      tickstart = HAL_GetTick();
 80018ee:	f7ff fcf5 	bl	80012dc <HAL_GetTick>
 80018f2:	4606      	mov	r6, r0
      while (__HAL_RCC_GET_FLAG(RCC_FLAG_LSIRDY) != RESET)
 80018f4:	6a63      	ldr	r3, [r4, #36]	; 0x24
 80018f6:	079f      	lsls	r7, r3, #30
 80018f8:	f57f af44 	bpl.w	8001784 <HAL_RCC_OscConfig+0x20>
        if ((HAL_GetTick() - tickstart) > LSI_TIMEOUT_VALUE)
 80018fc:	f7ff fcee 	bl	80012dc <HAL_GetTick>
 8001900:	1b80      	subs	r0, r0, r6
 8001902:	2802      	cmp	r0, #2
 8001904:	d9f6      	bls.n	80018f4 <HAL_RCC_OscConfig+0x190>
 8001906:	e76f      	b.n	80017e8 <HAL_RCC_OscConfig+0x84>
    if (__HAL_RCC_PWR_IS_CLK_DISABLED())
 8001908:	4c33      	ldr	r4, [pc, #204]	; (80019d8 <HAL_RCC_OscConfig+0x274>)
 800190a:	69e3      	ldr	r3, [r4, #28]
 800190c:	00d8      	lsls	r0, r3, #3
 800190e:	d424      	bmi.n	800195a <HAL_RCC_OscConfig+0x1f6>
      pwrclkchanged = SET;
 8001910:	2701      	movs	r7, #1
      __HAL_RCC_PWR_CLK_ENABLE();
 8001912:	69e3      	ldr	r3, [r4, #28]
 8001914:	f043 5380 	orr.w	r3, r3, #268435456	; 0x10000000
 8001918:	61e3      	str	r3, [r4, #28]
 800191a:	69e3      	ldr	r3, [r4, #28]
 800191c:	f003 5380 	and.w	r3, r3, #268435456	; 0x10000000
 8001920:	9300      	str	r3, [sp, #0]
 8001922:	9b00      	ldr	r3, [sp, #0]
    if (HAL_IS_BIT_CLR(PWR->CR, PWR_CR_DBP))
 8001924:	4e30      	ldr	r6, [pc, #192]	; (80019e8 <HAL_RCC_OscConfig+0x284>)
 8001926:	6833      	ldr	r3, [r6, #0]
 8001928:	05d9      	lsls	r1, r3, #23
 800192a:	d518      	bpl.n	800195e <HAL_RCC_OscConfig+0x1fa>
    __HAL_RCC_LSE_CONFIG(RCC_OscInitStruct->LSEState);
 800192c:	68eb      	ldr	r3, [r5, #12]
 800192e:	2b01      	cmp	r3, #1
 8001930:	d126      	bne.n	8001980 <HAL_RCC_OscConfig+0x21c>
 8001932:	6a23      	ldr	r3, [r4, #32]
 8001934:	f043 0301 	orr.w	r3, r3, #1
 8001938:	6223      	str	r3, [r4, #32]
      tickstart = HAL_GetTick();
 800193a:	f7ff fccf 	bl	80012dc <HAL_GetTick>
        if ((HAL_GetTick() - tickstart) > RCC_LSE_TIMEOUT_VALUE)
 800193e:	f241 3688 	movw	r6, #5000	; 0x1388
      tickstart = HAL_GetTick();
 8001942:	4680      	mov	r8, r0
      while (__HAL_RCC_GET_FLAG(RCC_FLAG_LSERDY) == RESET)
 8001944:	6a23      	ldr	r3, [r4, #32]
 8001946:	079b      	lsls	r3, r3, #30
 8001948:	d53f      	bpl.n	80019ca <HAL_RCC_OscConfig+0x266>
    if (pwrclkchanged == SET)
 800194a:	2f00      	cmp	r7, #0
 800194c:	f43f af1e 	beq.w	800178c <HAL_RCC_OscConfig+0x28>
      __HAL_RCC_PWR_CLK_DISABLE();
 8001950:	69e3      	ldr	r3, [r4, #28]
 8001952:	f023 5380 	bic.w	r3, r3, #268435456	; 0x10000000
 8001956:	61e3      	str	r3, [r4, #28]
 8001958:	e718      	b.n	800178c <HAL_RCC_OscConfig+0x28>
    FlagStatus       pwrclkchanged = RESET;
 800195a:	2700      	movs	r7, #0
 800195c:	e7e2      	b.n	8001924 <HAL_RCC_OscConfig+0x1c0>
      SET_BIT(PWR->CR, PWR_CR_DBP);
 800195e:	6833      	ldr	r3, [r6, #0]
 8001960:	f443 7380 	orr.w	r3, r3, #256	; 0x100
 8001964:	6033      	str	r3, [r6, #0]
      tickstart = HAL_GetTick();
 8001966:	f7ff fcb9 	bl	80012dc <HAL_GetTick>
 800196a:	4680      	mov	r8, r0
      while (HAL_IS_BIT_CLR(PWR->CR, PWR_CR_DBP))
 800196c:	6833      	ldr	r3, [r6, #0]
 800196e:	05da      	lsls	r2, r3, #23
 8001970:	d4dc      	bmi.n	800192c <HAL_RCC_OscConfig+0x1c8>
        if ((HAL_GetTick() - tickstart) > RCC_DBP_TIMEOUT_VALUE)
 8001972:	f7ff fcb3 	bl	80012dc <HAL_GetTick>
 8001976:	eba0 0008 	sub.w	r0, r0, r8
 800197a:	2864      	cmp	r0, #100	; 0x64
 800197c:	d9f6      	bls.n	800196c <HAL_RCC_OscConfig+0x208>
 800197e:	e733      	b.n	80017e8 <HAL_RCC_OscConfig+0x84>
    __HAL_RCC_LSE_CONFIG(RCC_OscInitStruct->LSEState);
 8001980:	b9ab      	cbnz	r3, 80019ae <HAL_RCC_OscConfig+0x24a>
 8001982:	6a23      	ldr	r3, [r4, #32]
        if ((HAL_GetTick() - tickstart) > RCC_LSE_TIMEOUT_VALUE)
 8001984:	f241 3888 	movw	r8, #5000	; 0x1388
    __HAL_RCC_LSE_CONFIG(RCC_OscInitStruct->LSEState);
 8001988:	f023 0301 	bic.w	r3, r3, #1
 800198c:	6223      	str	r3, [r4, #32]
 800198e:	6a23      	ldr	r3, [r4, #32]
 8001990:	f023 0304 	bic.w	r3, r3, #4
 8001994:	6223      	str	r3, [r4, #32]
      tickstart = HAL_GetTick();
 8001996:	f7ff fca1 	bl	80012dc <HAL_GetTick>
 800199a:	4606      	mov	r6, r0
      while (__HAL_RCC_GET_FLAG(RCC_FLAG_LSERDY) != RESET)
 800199c:	6a23      	ldr	r3, [r4, #32]
 800199e:	0798      	lsls	r0, r3, #30
 80019a0:	d5d3      	bpl.n	800194a <HAL_RCC_OscConfig+0x1e6>
        if ((HAL_GetTick() - tickstart) > RCC_LSE_TIMEOUT_VALUE)
 80019a2:	f7ff fc9b 	bl	80012dc <HAL_GetTick>
 80019a6:	1b80      	subs	r0, r0, r6
 80019a8:	4540      	cmp	r0, r8
 80019aa:	d9f7      	bls.n	800199c <HAL_RCC_OscConfig+0x238>
 80019ac:	e71c      	b.n	80017e8 <HAL_RCC_OscConfig+0x84>
    __HAL_RCC_LSE_CONFIG(RCC_OscInitStruct->LSEState);
 80019ae:	2b05      	cmp	r3, #5
 80019b0:	6a23      	ldr	r3, [r4, #32]
 80019b2:	d103      	bne.n	80019bc <HAL_RCC_OscConfig+0x258>
 80019b4:	f043 0304 	orr.w	r3, r3, #4
 80019b8:	6223      	str	r3, [r4, #32]
 80019ba:	e7ba      	b.n	8001932 <HAL_RCC_OscConfig+0x1ce>
 80019bc:	f023 0301 	bic.w	r3, r3, #1
 80019c0:	6223      	str	r3, [r4, #32]
 80019c2:	6a23      	ldr	r3, [r4, #32]
 80019c4:	f023 0304 	bic.w	r3, r3, #4
 80019c8:	e7b6      	b.n	8001938 <HAL_RCC_OscConfig+0x1d4>
        if ((HAL_GetTick() - tickstart) > RCC_LSE_TIMEOUT_VALUE)
 80019ca:	f7ff fc87 	bl	80012dc <HAL_GetTick>
 80019ce:	eba0 0008 	sub.w	r0, r0, r8
 80019d2:	42b0      	cmp	r0, r6
 80019d4:	d9b6      	bls.n	8001944 <HAL_RCC_OscConfig+0x1e0>
 80019d6:	e707      	b.n	80017e8 <HAL_RCC_OscConfig+0x84>
 80019d8:	40021000 	.word	0x40021000
 80019dc:	42420000 	.word	0x42420000
 80019e0:	42420480 	.word	0x42420480
 80019e4:	20000004 	.word	0x20000004
 80019e8:	40007000 	.word	0x40007000
    if (__HAL_RCC_GET_SYSCLK_SOURCE() != RCC_SYSCLKSOURCE_STATUS_PLLCLK)
 80019ec:	4b2a      	ldr	r3, [pc, #168]	; (8001a98 <HAL_RCC_OscConfig+0x334>)
 80019ee:	685a      	ldr	r2, [r3, #4]
 80019f0:	461c      	mov	r4, r3
 80019f2:	f002 020c 	and.w	r2, r2, #12
 80019f6:	2a08      	cmp	r2, #8
 80019f8:	d03d      	beq.n	8001a76 <HAL_RCC_OscConfig+0x312>
 80019fa:	2300      	movs	r3, #0
 80019fc:	4e27      	ldr	r6, [pc, #156]	; (8001a9c <HAL_RCC_OscConfig+0x338>)
      if ((RCC_OscInitStruct->PLL.PLLState) == RCC_PLL_ON)
 80019fe:	2802      	cmp	r0, #2
        __HAL_RCC_PLL_DISABLE();
 8001a00:	6033      	str	r3, [r6, #0]
      if ((RCC_OscInitStruct->PLL.PLLState) == RCC_PLL_ON)
 8001a02:	d12b      	bne.n	8001a5c <HAL_RCC_OscConfig+0x2f8>
        tickstart = HAL_GetTick();
 8001a04:	f7ff fc6a 	bl	80012dc <HAL_GetTick>
 8001a08:	4607      	mov	r7, r0
        while (__HAL_RCC_GET_FLAG(RCC_FLAG_PLLRDY)  != RESET)
 8001a0a:	6823      	ldr	r3, [r4, #0]
 8001a0c:	0199      	lsls	r1, r3, #6
 8001a0e:	d41f      	bmi.n	8001a50 <HAL_RCC_OscConfig+0x2ec>
        if (RCC_OscInitStruct->PLL.PLLSource == RCC_PLLSOURCE_HSE)
 8001a10:	6a2b      	ldr	r3, [r5, #32]
 8001a12:	f5b3 3f80 	cmp.w	r3, #65536	; 0x10000
 8001a16:	d105      	bne.n	8001a24 <HAL_RCC_OscConfig+0x2c0>
          __HAL_RCC_HSE_PREDIV_CONFIG(RCC_OscInitStruct->HSEPredivValue);
 8001a18:	6862      	ldr	r2, [r4, #4]
 8001a1a:	68a9      	ldr	r1, [r5, #8]
 8001a1c:	f422 3200 	bic.w	r2, r2, #131072	; 0x20000
 8001a20:	430a      	orrs	r2, r1
 8001a22:	6062      	str	r2, [r4, #4]
        __HAL_RCC_PLL_CONFIG(RCC_OscInitStruct->PLL.PLLSource,
 8001a24:	6a69      	ldr	r1, [r5, #36]	; 0x24
 8001a26:	6862      	ldr	r2, [r4, #4]
 8001a28:	430b      	orrs	r3, r1
 8001a2a:	f422 1274 	bic.w	r2, r2, #3997696	; 0x3d0000
 8001a2e:	4313      	orrs	r3, r2
 8001a30:	6063      	str	r3, [r4, #4]
        __HAL_RCC_PLL_ENABLE();
 8001a32:	2301      	movs	r3, #1
 8001a34:	6033      	str	r3, [r6, #0]
        tickstart = HAL_GetTick();
 8001a36:	f7ff fc51 	bl	80012dc <HAL_GetTick>
 8001a3a:	4605      	mov	r5, r0
        while (__HAL_RCC_GET_FLAG(RCC_FLAG_PLLRDY)  == RESET)
 8001a3c:	6823      	ldr	r3, [r4, #0]
 8001a3e:	019a      	lsls	r2, r3, #6
 8001a40:	f53f aea8 	bmi.w	8001794 <HAL_RCC_OscConfig+0x30>
          if ((HAL_GetTick() - tickstart) > PLL_TIMEOUT_VALUE)
 8001a44:	f7ff fc4a 	bl	80012dc <HAL_GetTick>
 8001a48:	1b40      	subs	r0, r0, r5
 8001a4a:	2802      	cmp	r0, #2
 8001a4c:	d9f6      	bls.n	8001a3c <HAL_RCC_OscConfig+0x2d8>
 8001a4e:	e6cb      	b.n	80017e8 <HAL_RCC_OscConfig+0x84>
          if ((HAL_GetTick() - tickstart) > PLL_TIMEOUT_VALUE)
 8001a50:	f7ff fc44 	bl	80012dc <HAL_GetTick>
 8001a54:	1bc0      	subs	r0, r0, r7
 8001a56:	2802      	cmp	r0, #2
 8001a58:	d9d7      	bls.n	8001a0a <HAL_RCC_OscConfig+0x2a6>
 8001a5a:	e6c5      	b.n	80017e8 <HAL_RCC_OscConfig+0x84>
        tickstart = HAL_GetTick();
 8001a5c:	f7ff fc3e 	bl	80012dc <HAL_GetTick>
 8001a60:	4605      	mov	r5, r0
        while (__HAL_RCC_GET_FLAG(RCC_FLAG_PLLRDY)  != RESET)
 8001a62:	6823      	ldr	r3, [r4, #0]
 8001a64:	019b      	lsls	r3, r3, #6
 8001a66:	f57f ae95 	bpl.w	8001794 <HAL_RCC_OscConfig+0x30>
          if ((HAL_GetTick() - tickstart) > PLL_TIMEOUT_VALUE)
 8001a6a:	f7ff fc37 	bl	80012dc <HAL_GetTick>
 8001a6e:	1b40      	subs	r0, r0, r5
 8001a70:	2802      	cmp	r0, #2
 8001a72:	d9f6      	bls.n	8001a62 <HAL_RCC_OscConfig+0x2fe>
 8001a74:	e6b8      	b.n	80017e8 <HAL_RCC_OscConfig+0x84>
      if ((RCC_OscInitStruct->PLL.PLLState) == RCC_PLL_OFF)
 8001a76:	2801      	cmp	r0, #1
 8001a78:	f43f aeb7 	beq.w	80017ea <HAL_RCC_OscConfig+0x86>
        pll_config = RCC->CFGR;
 8001a7c:	6858      	ldr	r0, [r3, #4]
        if ((READ_BIT(pll_config, RCC_CFGR_PLLSRC) != RCC_OscInitStruct->PLL.PLLSource) ||
 8001a7e:	6a2b      	ldr	r3, [r5, #32]
 8001a80:	f400 3280 	and.w	r2, r0, #65536	; 0x10000
 8001a84:	429a      	cmp	r2, r3
 8001a86:	f47f ae71 	bne.w	800176c <HAL_RCC_OscConfig+0x8>
 8001a8a:	6a6b      	ldr	r3, [r5, #36]	; 0x24
            (READ_BIT(pll_config, RCC_CFGR_PLLMULL) != RCC_OscInitStruct->PLL.PLLMUL))
 8001a8c:	f400 1070 	and.w	r0, r0, #3932160	; 0x3c0000
    return HAL_ERROR;
 8001a90:	1ac0      	subs	r0, r0, r3
 8001a92:	bf18      	it	ne
 8001a94:	2001      	movne	r0, #1
 8001a96:	e6a8      	b.n	80017ea <HAL_RCC_OscConfig+0x86>
 8001a98:	40021000 	.word	0x40021000
 8001a9c:	42420060 	.word	0x42420060

08001aa0 <HAL_RCC_GetSysClockFreq>:
{
 8001aa0:	b530      	push	{r4, r5, lr}
  const uint8_t aPLLMULFactorTable[16] = {2, 3, 4, 5, 6, 7, 8, 9, 10, 11, 12, 13, 14, 15, 16, 16};
 8001aa2:	4b18      	ldr	r3, [pc, #96]	; (8001b04 <HAL_RCC_GetSysClockFreq+0x64>)
{
 8001aa4:	b087      	sub	sp, #28
  const uint8_t aPLLMULFactorTable[16] = {2, 3, 4, 5, 6, 7, 8, 9, 10, 11, 12, 13, 14, 15, 16, 16};
 8001aa6:	ac02      	add	r4, sp, #8
 8001aa8:	f103 0510 	add.w	r5, r3, #16
 8001aac:	4622      	mov	r2, r4
 8001aae:	6818      	ldr	r0, [r3, #0]
 8001ab0:	6859      	ldr	r1, [r3, #4]
 8001ab2:	3308      	adds	r3, #8
 8001ab4:	c203      	stmia	r2!, {r0, r1}
 8001ab6:	42ab      	cmp	r3, r5
 8001ab8:	4614      	mov	r4, r2
 8001aba:	d1f7      	bne.n	8001aac <HAL_RCC_GetSysClockFreq+0xc>
  const uint8_t aPredivFactorTable[2] = {1, 2};
 8001abc:	f240 2301 	movw	r3, #513	; 0x201
  tmpreg = RCC->CFGR;
 8001ac0:	4911      	ldr	r1, [pc, #68]	; (8001b08 <HAL_RCC_GetSysClockFreq+0x68>)
  const uint8_t aPredivFactorTable[2] = {1, 2};
 8001ac2:	f8ad 3004 	strh.w	r3, [sp, #4]
  tmpreg = RCC->CFGR;
 8001ac6:	684b      	ldr	r3, [r1, #4]
  switch (tmpreg & RCC_CFGR_SWS)
 8001ac8:	f003 020c 	and.w	r2, r3, #12
 8001acc:	2a08      	cmp	r2, #8
 8001ace:	d117      	bne.n	8001b00 <HAL_RCC_GetSysClockFreq+0x60>
      pllmul = aPLLMULFactorTable[(uint32_t)(tmpreg & RCC_CFGR_PLLMULL) >> RCC_CFGR_PLLMULL_Pos];
 8001ad0:	f3c3 4283 	ubfx	r2, r3, #18, #4
 8001ad4:	a806      	add	r0, sp, #24
 8001ad6:	4402      	add	r2, r0
      if ((tmpreg & RCC_CFGR_PLLSRC) != RCC_PLLSOURCE_HSI_DIV2)
 8001ad8:	03db      	lsls	r3, r3, #15
      pllmul = aPLLMULFactorTable[(uint32_t)(tmpreg & RCC_CFGR_PLLMULL) >> RCC_CFGR_PLLMULL_Pos];
 8001ada:	f812 2c10 	ldrb.w	r2, [r2, #-16]
      if ((tmpreg & RCC_CFGR_PLLSRC) != RCC_PLLSOURCE_HSI_DIV2)
 8001ade:	d50c      	bpl.n	8001afa <HAL_RCC_GetSysClockFreq+0x5a>
        prediv = aPredivFactorTable[(uint32_t)(RCC->CFGR & RCC_CFGR_PLLXTPRE) >> RCC_CFGR_PLLXTPRE_Pos];
 8001ae0:	684b      	ldr	r3, [r1, #4]
        pllclk = (uint32_t)((HSE_VALUE  * pllmul) / prediv);
 8001ae2:	480a      	ldr	r0, [pc, #40]	; (8001b0c <HAL_RCC_GetSysClockFreq+0x6c>)
        prediv = aPredivFactorTable[(uint32_t)(RCC->CFGR & RCC_CFGR_PLLXTPRE) >> RCC_CFGR_PLLXTPRE_Pos];
 8001ae4:	f3c3 4340 	ubfx	r3, r3, #17, #1
        pllclk = (uint32_t)((HSE_VALUE  * pllmul) / prediv);
 8001ae8:	4350      	muls	r0, r2
        prediv = aPredivFactorTable[(uint32_t)(RCC->CFGR & RCC_CFGR_PLLXTPRE) >> RCC_CFGR_PLLXTPRE_Pos];
 8001aea:	aa06      	add	r2, sp, #24
 8001aec:	4413      	add	r3, r2
 8001aee:	f813 3c14 	ldrb.w	r3, [r3, #-20]
        pllclk = (uint32_t)((HSE_VALUE  * pllmul) / prediv);
 8001af2:	fbb0 f0f3 	udiv	r0, r0, r3
}
 8001af6:	b007      	add	sp, #28
 8001af8:	bd30      	pop	{r4, r5, pc}
        pllclk = (uint32_t)((HSI_VALUE >> 1) * pllmul);
 8001afa:	4805      	ldr	r0, [pc, #20]	; (8001b10 <HAL_RCC_GetSysClockFreq+0x70>)
 8001afc:	4350      	muls	r0, r2
 8001afe:	e7fa      	b.n	8001af6 <HAL_RCC_GetSysClockFreq+0x56>
      sysclockfreq = HSE_VALUE;
 8001b00:	4802      	ldr	r0, [pc, #8]	; (8001b0c <HAL_RCC_GetSysClockFreq+0x6c>)
  return sysclockfreq;
 8001b02:	e7f8      	b.n	8001af6 <HAL_RCC_GetSysClockFreq+0x56>
 8001b04:	08002790 	.word	0x08002790
 8001b08:	40021000 	.word	0x40021000
 8001b0c:	007a1200 	.word	0x007a1200
 8001b10:	003d0900 	.word	0x003d0900

08001b14 <HAL_RCC_ClockConfig>:
{
 8001b14:	e92d 41f0 	stmdb	sp!, {r4, r5, r6, r7, r8, lr}
 8001b18:	460d      	mov	r5, r1
  if (RCC_ClkInitStruct == NULL)
 8001b1a:	4604      	mov	r4, r0
 8001b1c:	b910      	cbnz	r0, 8001b24 <HAL_RCC_ClockConfig+0x10>
    return HAL_ERROR;
 8001b1e:	2001      	movs	r0, #1
}
 8001b20:	e8bd 81f0 	ldmia.w	sp!, {r4, r5, r6, r7, r8, pc}
  if (FLatency > __HAL_FLASH_GET_LATENCY())
 8001b24:	4a44      	ldr	r2, [pc, #272]	; (8001c38 <HAL_RCC_ClockConfig+0x124>)
 8001b26:	6813      	ldr	r3, [r2, #0]
 8001b28:	f003 0307 	and.w	r3, r3, #7
 8001b2c:	428b      	cmp	r3, r1
 8001b2e:	d328      	bcc.n	8001b82 <HAL_RCC_ClockConfig+0x6e>
if (((RCC_ClkInitStruct->ClockType) & RCC_CLOCKTYPE_HCLK) == RCC_CLOCKTYPE_HCLK)
 8001b30:	6821      	ldr	r1, [r4, #0]
 8001b32:	078e      	lsls	r6, r1, #30
 8001b34:	d430      	bmi.n	8001b98 <HAL_RCC_ClockConfig+0x84>
  if (((RCC_ClkInitStruct->ClockType) & RCC_CLOCKTYPE_SYSCLK) == RCC_CLOCKTYPE_SYSCLK)
 8001b36:	07ca      	lsls	r2, r1, #31
 8001b38:	d443      	bmi.n	8001bc2 <HAL_RCC_ClockConfig+0xae>
  if (FLatency < __HAL_FLASH_GET_LATENCY())
 8001b3a:	4a3f      	ldr	r2, [pc, #252]	; (8001c38 <HAL_RCC_ClockConfig+0x124>)
 8001b3c:	6813      	ldr	r3, [r2, #0]
 8001b3e:	f003 0307 	and.w	r3, r3, #7
 8001b42:	42ab      	cmp	r3, r5
 8001b44:	d865      	bhi.n	8001c12 <HAL_RCC_ClockConfig+0xfe>
if (((RCC_ClkInitStruct->ClockType) & RCC_CLOCKTYPE_PCLK1) == RCC_CLOCKTYPE_PCLK1)
 8001b46:	6822      	ldr	r2, [r4, #0]
 8001b48:	4d3c      	ldr	r5, [pc, #240]	; (8001c3c <HAL_RCC_ClockConfig+0x128>)
 8001b4a:	f012 0f04 	tst.w	r2, #4
 8001b4e:	d16c      	bne.n	8001c2a <HAL_RCC_ClockConfig+0x116>
  if (((RCC_ClkInitStruct->ClockType) & RCC_CLOCKTYPE_PCLK2) == RCC_CLOCKTYPE_PCLK2)
 8001b50:	0713      	lsls	r3, r2, #28
 8001b52:	d506      	bpl.n	8001b62 <HAL_RCC_ClockConfig+0x4e>
    MODIFY_REG(RCC->CFGR, RCC_CFGR_PPRE2, ((RCC_ClkInitStruct->APB2CLKDivider) << 3));
 8001b54:	686b      	ldr	r3, [r5, #4]
 8001b56:	6922      	ldr	r2, [r4, #16]
 8001b58:	f423 5360 	bic.w	r3, r3, #14336	; 0x3800
 8001b5c:	ea43 03c2 	orr.w	r3, r3, r2, lsl #3
 8001b60:	606b      	str	r3, [r5, #4]
  SystemCoreClock = HAL_RCC_GetSysClockFreq() >> AHBPrescTable[(RCC->CFGR & RCC_CFGR_HPRE) >> RCC_CFGR_HPRE_Pos];
 8001b62:	f7ff ff9d 	bl	8001aa0 <HAL_RCC_GetSysClockFreq>
 8001b66:	686b      	ldr	r3, [r5, #4]
 8001b68:	4a35      	ldr	r2, [pc, #212]	; (8001c40 <HAL_RCC_ClockConfig+0x12c>)
 8001b6a:	f3c3 1303 	ubfx	r3, r3, #4, #4
 8001b6e:	5cd3      	ldrb	r3, [r2, r3]
 8001b70:	40d8      	lsrs	r0, r3
 8001b72:	4b34      	ldr	r3, [pc, #208]	; (8001c44 <HAL_RCC_ClockConfig+0x130>)
 8001b74:	6018      	str	r0, [r3, #0]
  HAL_InitTick(uwTickPrio);
 8001b76:	4b34      	ldr	r3, [pc, #208]	; (8001c48 <HAL_RCC_ClockConfig+0x134>)
 8001b78:	6818      	ldr	r0, [r3, #0]
 8001b7a:	f7ff fb6d 	bl	8001258 <HAL_InitTick>
  return HAL_OK;
 8001b7e:	2000      	movs	r0, #0
 8001b80:	e7ce      	b.n	8001b20 <HAL_RCC_ClockConfig+0xc>
    __HAL_FLASH_SET_LATENCY(FLatency);
 8001b82:	6813      	ldr	r3, [r2, #0]
 8001b84:	f023 0307 	bic.w	r3, r3, #7
 8001b88:	430b      	orrs	r3, r1
 8001b8a:	6013      	str	r3, [r2, #0]
    if (__HAL_FLASH_GET_LATENCY() != FLatency)
 8001b8c:	6813      	ldr	r3, [r2, #0]
 8001b8e:	f003 0307 	and.w	r3, r3, #7
 8001b92:	428b      	cmp	r3, r1
 8001b94:	d1c3      	bne.n	8001b1e <HAL_RCC_ClockConfig+0xa>
 8001b96:	e7cb      	b.n	8001b30 <HAL_RCC_ClockConfig+0x1c>
 8001b98:	4b28      	ldr	r3, [pc, #160]	; (8001c3c <HAL_RCC_ClockConfig+0x128>)
    if (((RCC_ClkInitStruct->ClockType) & RCC_CLOCKTYPE_PCLK1) == RCC_CLOCKTYPE_PCLK1)
 8001b9a:	f011 0f04 	tst.w	r1, #4
      MODIFY_REG(RCC->CFGR, RCC_CFGR_PPRE1, RCC_HCLK_DIV16);
 8001b9e:	bf1e      	ittt	ne
 8001ba0:	685a      	ldrne	r2, [r3, #4]
 8001ba2:	f442 62e0 	orrne.w	r2, r2, #1792	; 0x700
 8001ba6:	605a      	strne	r2, [r3, #4]
    if (((RCC_ClkInitStruct->ClockType) & RCC_CLOCKTYPE_PCLK2) == RCC_CLOCKTYPE_PCLK2)
 8001ba8:	0708      	lsls	r0, r1, #28
      MODIFY_REG(RCC->CFGR, RCC_CFGR_PPRE2, (RCC_HCLK_DIV16 << 3));
 8001baa:	bf42      	ittt	mi
 8001bac:	685a      	ldrmi	r2, [r3, #4]
 8001bae:	f442 5260 	orrmi.w	r2, r2, #14336	; 0x3800
 8001bb2:	605a      	strmi	r2, [r3, #4]
    MODIFY_REG(RCC->CFGR, RCC_CFGR_HPRE, RCC_ClkInitStruct->AHBCLKDivider);
 8001bb4:	685a      	ldr	r2, [r3, #4]
 8001bb6:	68a0      	ldr	r0, [r4, #8]
 8001bb8:	f022 02f0 	bic.w	r2, r2, #240	; 0xf0
 8001bbc:	4302      	orrs	r2, r0
 8001bbe:	605a      	str	r2, [r3, #4]
 8001bc0:	e7b9      	b.n	8001b36 <HAL_RCC_ClockConfig+0x22>
    if (RCC_ClkInitStruct->SYSCLKSource == RCC_SYSCLKSOURCE_HSE)
 8001bc2:	6862      	ldr	r2, [r4, #4]
 8001bc4:	4e1d      	ldr	r6, [pc, #116]	; (8001c3c <HAL_RCC_ClockConfig+0x128>)
 8001bc6:	2a01      	cmp	r2, #1
      if (__HAL_RCC_GET_FLAG(RCC_FLAG_HSERDY) == RESET)
 8001bc8:	6833      	ldr	r3, [r6, #0]
    if (RCC_ClkInitStruct->SYSCLKSource == RCC_SYSCLKSOURCE_HSE)
 8001bca:	d11a      	bne.n	8001c02 <HAL_RCC_ClockConfig+0xee>
      if (__HAL_RCC_GET_FLAG(RCC_FLAG_HSERDY) == RESET)
 8001bcc:	f413 3f00 	tst.w	r3, #131072	; 0x20000
      if (__HAL_RCC_GET_FLAG(RCC_FLAG_HSIRDY) == RESET)
 8001bd0:	d0a5      	beq.n	8001b1e <HAL_RCC_ClockConfig+0xa>
    __HAL_RCC_SYSCLK_CONFIG(RCC_ClkInitStruct->SYSCLKSource);
 8001bd2:	6873      	ldr	r3, [r6, #4]
      if ((HAL_GetTick() - tickstart) > CLOCKSWITCH_TIMEOUT_VALUE)
 8001bd4:	f241 3888 	movw	r8, #5000	; 0x1388
    __HAL_RCC_SYSCLK_CONFIG(RCC_ClkInitStruct->SYSCLKSource);
 8001bd8:	f023 0303 	bic.w	r3, r3, #3
 8001bdc:	4313      	orrs	r3, r2
 8001bde:	6073      	str	r3, [r6, #4]
    tickstart = HAL_GetTick();
 8001be0:	f7ff fb7c 	bl	80012dc <HAL_GetTick>
 8001be4:	4607      	mov	r7, r0
    while (__HAL_RCC_GET_SYSCLK_SOURCE() != (RCC_ClkInitStruct->SYSCLKSource << RCC_CFGR_SWS_Pos))
 8001be6:	6873      	ldr	r3, [r6, #4]
 8001be8:	6862      	ldr	r2, [r4, #4]
 8001bea:	f003 030c 	and.w	r3, r3, #12
 8001bee:	ebb3 0f82 	cmp.w	r3, r2, lsl #2
 8001bf2:	d0a2      	beq.n	8001b3a <HAL_RCC_ClockConfig+0x26>
      if ((HAL_GetTick() - tickstart) > CLOCKSWITCH_TIMEOUT_VALUE)
 8001bf4:	f7ff fb72 	bl	80012dc <HAL_GetTick>
 8001bf8:	1bc0      	subs	r0, r0, r7
 8001bfa:	4540      	cmp	r0, r8
 8001bfc:	d9f3      	bls.n	8001be6 <HAL_RCC_ClockConfig+0xd2>
        return HAL_TIMEOUT;
 8001bfe:	2003      	movs	r0, #3
 8001c00:	e78e      	b.n	8001b20 <HAL_RCC_ClockConfig+0xc>
    else if (RCC_ClkInitStruct->SYSCLKSource == RCC_SYSCLKSOURCE_PLLCLK)
 8001c02:	2a02      	cmp	r2, #2
 8001c04:	d102      	bne.n	8001c0c <HAL_RCC_ClockConfig+0xf8>
      if (__HAL_RCC_GET_FLAG(RCC_FLAG_PLLRDY) == RESET)
 8001c06:	f013 7f00 	tst.w	r3, #33554432	; 0x2000000
 8001c0a:	e7e1      	b.n	8001bd0 <HAL_RCC_ClockConfig+0xbc>
      if (__HAL_RCC_GET_FLAG(RCC_FLAG_HSIRDY) == RESET)
 8001c0c:	f013 0f02 	tst.w	r3, #2
 8001c10:	e7de      	b.n	8001bd0 <HAL_RCC_ClockConfig+0xbc>
    __HAL_FLASH_SET_LATENCY(FLatency);
 8001c12:	6813      	ldr	r3, [r2, #0]
 8001c14:	f023 0307 	bic.w	r3, r3, #7
 8001c18:	432b      	orrs	r3, r5
 8001c1a:	6013      	str	r3, [r2, #0]
    if (__HAL_FLASH_GET_LATENCY() != FLatency)
 8001c1c:	6813      	ldr	r3, [r2, #0]
 8001c1e:	f003 0307 	and.w	r3, r3, #7
 8001c22:	42ab      	cmp	r3, r5
 8001c24:	f47f af7b 	bne.w	8001b1e <HAL_RCC_ClockConfig+0xa>
 8001c28:	e78d      	b.n	8001b46 <HAL_RCC_ClockConfig+0x32>
    MODIFY_REG(RCC->CFGR, RCC_CFGR_PPRE1, RCC_ClkInitStruct->APB1CLKDivider);
 8001c2a:	686b      	ldr	r3, [r5, #4]
 8001c2c:	68e1      	ldr	r1, [r4, #12]
 8001c2e:	f423 63e0 	bic.w	r3, r3, #1792	; 0x700
 8001c32:	430b      	orrs	r3, r1
 8001c34:	606b      	str	r3, [r5, #4]
 8001c36:	e78b      	b.n	8001b50 <HAL_RCC_ClockConfig+0x3c>
 8001c38:	40022000 	.word	0x40022000
 8001c3c:	40021000 	.word	0x40021000
 8001c40:	0800cfd5 	.word	0x0800cfd5
 8001c44:	20000004 	.word	0x20000004
 8001c48:	2000000c 	.word	0x2000000c

08001c4c <SPI_WaitFlagStateUntilTimeout.constprop.6>:
  * @param  State flag state to check
  * @param  Timeout Timeout duration
  * @param  Tickstart tick start value
  * @retval HAL status
  */
static HAL_StatusTypeDef SPI_WaitFlagStateUntilTimeout(SPI_HandleTypeDef *hspi, uint32_t Flag, FlagStatus State,
 8001c4c:	b5f8      	push	{r3, r4, r5, r6, r7, lr}
 8001c4e:	4604      	mov	r4, r0
 8001c50:	460e      	mov	r6, r1
 8001c52:	4615      	mov	r5, r2
 8001c54:	461f      	mov	r7, r3
                                                       uint32_t Timeout, uint32_t Tickstart)
{
  while ((__HAL_SPI_GET_FLAG(hspi, Flag) ? SET : RESET) != State)
 8001c56:	6821      	ldr	r1, [r4, #0]
 8001c58:	688a      	ldr	r2, [r1, #8]
 8001c5a:	ea36 0302 	bics.w	r3, r6, r2
 8001c5e:	d001      	beq.n	8001c64 <SPI_WaitFlagStateUntilTimeout.constprop.6+0x18>
        return HAL_TIMEOUT;
      }
    }
  }

  return HAL_OK;
 8001c60:	2000      	movs	r0, #0
 8001c62:	e02d      	b.n	8001cc0 <SPI_WaitFlagStateUntilTimeout.constprop.6+0x74>
    if (Timeout != HAL_MAX_DELAY)
 8001c64:	1c6b      	adds	r3, r5, #1
 8001c66:	d0f7      	beq.n	8001c58 <SPI_WaitFlagStateUntilTimeout.constprop.6+0xc>
      if (((HAL_GetTick() - Tickstart) >= Timeout) || (Timeout == 0U))
 8001c68:	f7ff fb38 	bl	80012dc <HAL_GetTick>
 8001c6c:	1bc0      	subs	r0, r0, r7
 8001c6e:	4285      	cmp	r5, r0
 8001c70:	d8f1      	bhi.n	8001c56 <SPI_WaitFlagStateUntilTimeout.constprop.6+0xa>
        __HAL_SPI_DISABLE_IT(hspi, (SPI_IT_TXE | SPI_IT_RXNE | SPI_IT_ERR));
 8001c72:	6823      	ldr	r3, [r4, #0]
 8001c74:	685a      	ldr	r2, [r3, #4]
 8001c76:	f022 02e0 	bic.w	r2, r2, #224	; 0xe0
 8001c7a:	605a      	str	r2, [r3, #4]
        if ((hspi->Init.Mode == SPI_MODE_MASTER) && ((hspi->Init.Direction == SPI_DIRECTION_1LINE)
 8001c7c:	6862      	ldr	r2, [r4, #4]
 8001c7e:	f5b2 7f82 	cmp.w	r2, #260	; 0x104
 8001c82:	d10a      	bne.n	8001c9a <SPI_WaitFlagStateUntilTimeout.constprop.6+0x4e>
 8001c84:	68a2      	ldr	r2, [r4, #8]
 8001c86:	f5b2 4f00 	cmp.w	r2, #32768	; 0x8000
 8001c8a:	d002      	beq.n	8001c92 <SPI_WaitFlagStateUntilTimeout.constprop.6+0x46>
                                                     || (hspi->Init.Direction == SPI_DIRECTION_2LINES_RXONLY)))
 8001c8c:	f5b2 6f80 	cmp.w	r2, #1024	; 0x400
 8001c90:	d103      	bne.n	8001c9a <SPI_WaitFlagStateUntilTimeout.constprop.6+0x4e>
          __HAL_SPI_DISABLE(hspi);
 8001c92:	681a      	ldr	r2, [r3, #0]
 8001c94:	f022 0240 	bic.w	r2, r2, #64	; 0x40
 8001c98:	601a      	str	r2, [r3, #0]
        if (hspi->Init.CRCCalculation == SPI_CRCCALCULATION_ENABLE)
 8001c9a:	6aa2      	ldr	r2, [r4, #40]	; 0x28
 8001c9c:	f5b2 5f00 	cmp.w	r2, #8192	; 0x2000
 8001ca0:	d107      	bne.n	8001cb2 <SPI_WaitFlagStateUntilTimeout.constprop.6+0x66>
          SPI_RESET_CRC(hspi);
 8001ca2:	681a      	ldr	r2, [r3, #0]
 8001ca4:	f422 5200 	bic.w	r2, r2, #8192	; 0x2000
 8001ca8:	601a      	str	r2, [r3, #0]
 8001caa:	681a      	ldr	r2, [r3, #0]
 8001cac:	f442 5200 	orr.w	r2, r2, #8192	; 0x2000
 8001cb0:	601a      	str	r2, [r3, #0]
        hspi->State = HAL_SPI_STATE_READY;
 8001cb2:	2301      	movs	r3, #1
 8001cb4:	f884 3051 	strb.w	r3, [r4, #81]	; 0x51
        __HAL_UNLOCK(hspi);
 8001cb8:	2300      	movs	r3, #0
 8001cba:	2003      	movs	r0, #3
 8001cbc:	f884 3050 	strb.w	r3, [r4, #80]	; 0x50
}
 8001cc0:	bdf8      	pop	{r3, r4, r5, r6, r7, pc}

08001cc2 <SPI_EndRxTxTransaction>:
  * @param  Timeout Timeout duration
  * @param  Tickstart tick start value
  * @retval HAL status
  */
static HAL_StatusTypeDef SPI_EndRxTxTransaction(SPI_HandleTypeDef *hspi, uint32_t Timeout, uint32_t Tickstart)
{
 8001cc2:	b510      	push	{r4, lr}
  /* Control the BSY flag */
  if (SPI_WaitFlagStateUntilTimeout(hspi, SPI_FLAG_BSY, RESET, Timeout, Tickstart) != HAL_OK)
 8001cc4:	4613      	mov	r3, r2
 8001cc6:	460a      	mov	r2, r1
 8001cc8:	2180      	movs	r1, #128	; 0x80
{
 8001cca:	4604      	mov	r4, r0
  if (SPI_WaitFlagStateUntilTimeout(hspi, SPI_FLAG_BSY, RESET, Timeout, Tickstart) != HAL_OK)
 8001ccc:	f7ff ffbe 	bl	8001c4c <SPI_WaitFlagStateUntilTimeout.constprop.6>
 8001cd0:	b120      	cbz	r0, 8001cdc <SPI_EndRxTxTransaction+0x1a>
  {
    SET_BIT(hspi->ErrorCode, HAL_SPI_ERROR_FLAG);
    return HAL_TIMEOUT;
 8001cd2:	2003      	movs	r0, #3
    SET_BIT(hspi->ErrorCode, HAL_SPI_ERROR_FLAG);
 8001cd4:	6d63      	ldr	r3, [r4, #84]	; 0x54
 8001cd6:	f043 0320 	orr.w	r3, r3, #32
 8001cda:	6563      	str	r3, [r4, #84]	; 0x54
  }
  return HAL_OK;
}
 8001cdc:	bd10      	pop	{r4, pc}

08001cde <HAL_SPI_Init>:
{
 8001cde:	b510      	push	{r4, lr}
  if (hspi == NULL)
 8001ce0:	4604      	mov	r4, r0
 8001ce2:	2800      	cmp	r0, #0
 8001ce4:	d034      	beq.n	8001d50 <HAL_SPI_Init+0x72>
  hspi->Init.CRCCalculation = SPI_CRCCALCULATION_DISABLE;
 8001ce6:	2300      	movs	r3, #0
 8001ce8:	6283      	str	r3, [r0, #40]	; 0x28
  if (hspi->State == HAL_SPI_STATE_RESET)
 8001cea:	f890 3051 	ldrb.w	r3, [r0, #81]	; 0x51
 8001cee:	f003 02ff 	and.w	r2, r3, #255	; 0xff
 8001cf2:	b91b      	cbnz	r3, 8001cfc <HAL_SPI_Init+0x1e>
    hspi->Lock = HAL_UNLOCKED;
 8001cf4:	f880 2050 	strb.w	r2, [r0, #80]	; 0x50
    HAL_SPI_MspInit(hspi);
 8001cf8:	f7ff f80c 	bl	8000d14 <HAL_SPI_MspInit>
  hspi->State = HAL_SPI_STATE_BUSY;
 8001cfc:	2302      	movs	r3, #2
  __HAL_SPI_DISABLE(hspi);
 8001cfe:	6822      	ldr	r2, [r4, #0]
  hspi->State = HAL_SPI_STATE_BUSY;
 8001d00:	f884 3051 	strb.w	r3, [r4, #81]	; 0x51
  __HAL_SPI_DISABLE(hspi);
 8001d04:	6813      	ldr	r3, [r2, #0]
  WRITE_REG(hspi->Instance->CR1, (hspi->Init.Mode | hspi->Init.Direction | hspi->Init.DataSize |
 8001d06:	69a1      	ldr	r1, [r4, #24]
  __HAL_SPI_DISABLE(hspi);
 8001d08:	f023 0340 	bic.w	r3, r3, #64	; 0x40
 8001d0c:	6013      	str	r3, [r2, #0]
  WRITE_REG(hspi->Instance->CR1, (hspi->Init.Mode | hspi->Init.Direction | hspi->Init.DataSize |
 8001d0e:	e9d4 3001 	ldrd	r3, r0, [r4, #4]
 8001d12:	4303      	orrs	r3, r0
 8001d14:	68e0      	ldr	r0, [r4, #12]
 8001d16:	4303      	orrs	r3, r0
 8001d18:	6920      	ldr	r0, [r4, #16]
 8001d1a:	4303      	orrs	r3, r0
 8001d1c:	6960      	ldr	r0, [r4, #20]
 8001d1e:	4303      	orrs	r3, r0
 8001d20:	69e0      	ldr	r0, [r4, #28]
 8001d22:	4303      	orrs	r3, r0
 8001d24:	6a20      	ldr	r0, [r4, #32]
 8001d26:	4303      	orrs	r3, r0
 8001d28:	6aa0      	ldr	r0, [r4, #40]	; 0x28
 8001d2a:	4303      	orrs	r3, r0
 8001d2c:	f401 7000 	and.w	r0, r1, #512	; 0x200
  WRITE_REG(hspi->Instance->CR2, ((hspi->Init.NSS >> 16U) & SPI_CR2_SSOE));
 8001d30:	0c09      	lsrs	r1, r1, #16
  WRITE_REG(hspi->Instance->CR1, (hspi->Init.Mode | hspi->Init.Direction | hspi->Init.DataSize |
 8001d32:	4303      	orrs	r3, r0
  WRITE_REG(hspi->Instance->CR2, ((hspi->Init.NSS >> 16U) & SPI_CR2_SSOE));
 8001d34:	f001 0104 	and.w	r1, r1, #4
  WRITE_REG(hspi->Instance->CR1, (hspi->Init.Mode | hspi->Init.Direction | hspi->Init.DataSize |
 8001d38:	6013      	str	r3, [r2, #0]
  WRITE_REG(hspi->Instance->CR2, ((hspi->Init.NSS >> 16U) & SPI_CR2_SSOE));
 8001d3a:	6051      	str	r1, [r2, #4]
  CLEAR_BIT(hspi->Instance->I2SCFGR, SPI_I2SCFGR_I2SMOD);
 8001d3c:	69d3      	ldr	r3, [r2, #28]
  hspi->ErrorCode = HAL_SPI_ERROR_NONE;
 8001d3e:	2000      	movs	r0, #0
  CLEAR_BIT(hspi->Instance->I2SCFGR, SPI_I2SCFGR_I2SMOD);
 8001d40:	f423 6300 	bic.w	r3, r3, #2048	; 0x800
 8001d44:	61d3      	str	r3, [r2, #28]
  hspi->State     = HAL_SPI_STATE_READY;
 8001d46:	2301      	movs	r3, #1
  hspi->ErrorCode = HAL_SPI_ERROR_NONE;
 8001d48:	6560      	str	r0, [r4, #84]	; 0x54
  hspi->State     = HAL_SPI_STATE_READY;
 8001d4a:	f884 3051 	strb.w	r3, [r4, #81]	; 0x51
}
 8001d4e:	bd10      	pop	{r4, pc}
    return HAL_ERROR;
 8001d50:	2001      	movs	r0, #1
 8001d52:	e7fc      	b.n	8001d4e <HAL_SPI_Init+0x70>

08001d54 <HAL_SPI_Transmit>:
{
 8001d54:	e92d 41f3 	stmdb	sp!, {r0, r1, r4, r5, r6, r7, r8, lr}
 8001d58:	461e      	mov	r6, r3
  __HAL_LOCK(hspi);
 8001d5a:	f890 3050 	ldrb.w	r3, [r0, #80]	; 0x50
{
 8001d5e:	4604      	mov	r4, r0
  __HAL_LOCK(hspi);
 8001d60:	2b01      	cmp	r3, #1
{
 8001d62:	460d      	mov	r5, r1
 8001d64:	4690      	mov	r8, r2
  __HAL_LOCK(hspi);
 8001d66:	f000 809c 	beq.w	8001ea2 <HAL_SPI_Transmit+0x14e>
 8001d6a:	2301      	movs	r3, #1
 8001d6c:	f880 3050 	strb.w	r3, [r0, #80]	; 0x50
  tickstart = HAL_GetTick();
 8001d70:	f7ff fab4 	bl	80012dc <HAL_GetTick>
 8001d74:	4607      	mov	r7, r0
  if (hspi->State != HAL_SPI_STATE_READY)
 8001d76:	f894 0051 	ldrb.w	r0, [r4, #81]	; 0x51
 8001d7a:	b2c0      	uxtb	r0, r0
 8001d7c:	2801      	cmp	r0, #1
 8001d7e:	f040 808e 	bne.w	8001e9e <HAL_SPI_Transmit+0x14a>
  if ((pData == NULL) || (Size == 0U))
 8001d82:	2d00      	cmp	r5, #0
 8001d84:	d05e      	beq.n	8001e44 <HAL_SPI_Transmit+0xf0>
 8001d86:	f1b8 0f00 	cmp.w	r8, #0
 8001d8a:	d05b      	beq.n	8001e44 <HAL_SPI_Transmit+0xf0>
  hspi->State       = HAL_SPI_STATE_BUSY_TX;
 8001d8c:	2303      	movs	r3, #3
  hspi->ErrorCode   = HAL_SPI_ERROR_NONE;
 8001d8e:	2000      	movs	r0, #0
  hspi->State       = HAL_SPI_STATE_BUSY_TX;
 8001d90:	f884 3051 	strb.w	r3, [r4, #81]	; 0x51
  if (hspi->Init.Direction == SPI_DIRECTION_1LINE)
 8001d94:	68a3      	ldr	r3, [r4, #8]
  hspi->ErrorCode   = HAL_SPI_ERROR_NONE;
 8001d96:	6560      	str	r0, [r4, #84]	; 0x54
  hspi->pRxBuffPtr  = (uint8_t *)NULL;
 8001d98:	63a0      	str	r0, [r4, #56]	; 0x38
  hspi->TxXferCount = Size;
 8001d9a:	f8a4 8036 	strh.w	r8, [r4, #54]	; 0x36
  hspi->RxXferSize  = 0U;
 8001d9e:	87a0      	strh	r0, [r4, #60]	; 0x3c
  hspi->RxXferCount = 0U;
 8001da0:	87e0      	strh	r0, [r4, #62]	; 0x3e
  hspi->RxISR       = NULL;
 8001da2:	e9c4 0010 	strd	r0, r0, [r4, #64]	; 0x40
 8001da6:	6820      	ldr	r0, [r4, #0]
  if (hspi->Init.Direction == SPI_DIRECTION_1LINE)
 8001da8:	f5b3 4f00 	cmp.w	r3, #32768	; 0x8000
    SPI_1LINE_TX(hspi);
 8001dac:	bf08      	it	eq
 8001dae:	6803      	ldreq	r3, [r0, #0]
  hspi->pTxBuffPtr  = (uint8_t *)pData;
 8001db0:	6325      	str	r5, [r4, #48]	; 0x30
    SPI_1LINE_TX(hspi);
 8001db2:	bf08      	it	eq
 8001db4:	f443 4380 	orreq.w	r3, r3, #16384	; 0x4000
  hspi->TxXferSize  = Size;
 8001db8:	f8a4 8034 	strh.w	r8, [r4, #52]	; 0x34
    SPI_1LINE_TX(hspi);
 8001dbc:	bf08      	it	eq
 8001dbe:	6003      	streq	r3, [r0, #0]
  if ((hspi->Instance->CR1 & SPI_CR1_SPE) != SPI_CR1_SPE)
 8001dc0:	6803      	ldr	r3, [r0, #0]
  if (hspi->Init.DataSize == SPI_DATASIZE_16BIT)
 8001dc2:	68e2      	ldr	r2, [r4, #12]
  if ((hspi->Instance->CR1 & SPI_CR1_SPE) != SPI_CR1_SPE)
 8001dc4:	065b      	lsls	r3, r3, #25
    __HAL_SPI_ENABLE(hspi);
 8001dc6:	bf5e      	ittt	pl
 8001dc8:	6803      	ldrpl	r3, [r0, #0]
 8001dca:	f043 0340 	orrpl.w	r3, r3, #64	; 0x40
 8001dce:	6003      	strpl	r3, [r0, #0]
  if (hspi->Init.DataSize == SPI_DATASIZE_16BIT)
 8001dd0:	f5b2 6f00 	cmp.w	r2, #2048	; 0x800
 8001dd4:	6863      	ldr	r3, [r4, #4]
 8001dd6:	d13e      	bne.n	8001e56 <HAL_SPI_Transmit+0x102>
    if ((hspi->Init.Mode == SPI_MODE_SLAVE) || (initial_TxXferCount == 0x01U))
 8001dd8:	b113      	cbz	r3, 8001de0 <HAL_SPI_Transmit+0x8c>
 8001dda:	f1b8 0f01 	cmp.w	r8, #1
 8001dde:	d107      	bne.n	8001df0 <HAL_SPI_Transmit+0x9c>
      hspi->Instance->DR = *((uint16_t *)hspi->pTxBuffPtr);
 8001de0:	f835 3b02 	ldrh.w	r3, [r5], #2
 8001de4:	60c3      	str	r3, [r0, #12]
      hspi->pTxBuffPtr += sizeof(uint16_t);
 8001de6:	6325      	str	r5, [r4, #48]	; 0x30
        hspi->TxXferCount--;
 8001de8:	8ee3      	ldrh	r3, [r4, #54]	; 0x36
 8001dea:	3b01      	subs	r3, #1
 8001dec:	b29b      	uxth	r3, r3
 8001dee:	86e3      	strh	r3, [r4, #54]	; 0x36
    while (hspi->TxXferCount > 0U)
 8001df0:	8ee3      	ldrh	r3, [r4, #54]	; 0x36
 8001df2:	b29b      	uxth	r3, r3
 8001df4:	b9a3      	cbnz	r3, 8001e20 <HAL_SPI_Transmit+0xcc>
  if (SPI_EndRxTxTransaction(hspi, Timeout, tickstart) != HAL_OK)
 8001df6:	463a      	mov	r2, r7
 8001df8:	4631      	mov	r1, r6
 8001dfa:	4620      	mov	r0, r4
 8001dfc:	f7ff ff61 	bl	8001cc2 <SPI_EndRxTxTransaction>
 8001e00:	2800      	cmp	r0, #0
 8001e02:	d149      	bne.n	8001e98 <HAL_SPI_Transmit+0x144>
  if (hspi->Init.Direction == SPI_DIRECTION_2LINES)
 8001e04:	68a3      	ldr	r3, [r4, #8]
 8001e06:	b933      	cbnz	r3, 8001e16 <HAL_SPI_Transmit+0xc2>
    __HAL_SPI_CLEAR_OVRFLAG(hspi);
 8001e08:	9301      	str	r3, [sp, #4]
 8001e0a:	6823      	ldr	r3, [r4, #0]
 8001e0c:	68da      	ldr	r2, [r3, #12]
 8001e0e:	9201      	str	r2, [sp, #4]
 8001e10:	689b      	ldr	r3, [r3, #8]
 8001e12:	9301      	str	r3, [sp, #4]
 8001e14:	9b01      	ldr	r3, [sp, #4]
  if (hspi->ErrorCode != HAL_SPI_ERROR_NONE)
 8001e16:	6d60      	ldr	r0, [r4, #84]	; 0x54
    errorcode = HAL_BUSY;
 8001e18:	3000      	adds	r0, #0
 8001e1a:	bf18      	it	ne
 8001e1c:	2001      	movne	r0, #1
error:
 8001e1e:	e011      	b.n	8001e44 <HAL_SPI_Transmit+0xf0>
      if (__HAL_SPI_GET_FLAG(hspi, SPI_FLAG_TXE))
 8001e20:	6822      	ldr	r2, [r4, #0]
 8001e22:	6893      	ldr	r3, [r2, #8]
 8001e24:	0798      	lsls	r0, r3, #30
 8001e26:	d505      	bpl.n	8001e34 <HAL_SPI_Transmit+0xe0>
        hspi->Instance->DR = *((uint16_t *)hspi->pTxBuffPtr);
 8001e28:	6b23      	ldr	r3, [r4, #48]	; 0x30
 8001e2a:	f833 1b02 	ldrh.w	r1, [r3], #2
 8001e2e:	60d1      	str	r1, [r2, #12]
        hspi->pTxBuffPtr += sizeof(uint16_t);
 8001e30:	6323      	str	r3, [r4, #48]	; 0x30
 8001e32:	e7d9      	b.n	8001de8 <HAL_SPI_Transmit+0x94>
        if ((((HAL_GetTick() - tickstart) >=  Timeout) && (Timeout != HAL_MAX_DELAY)) || (Timeout == 0U))
 8001e34:	f7ff fa52 	bl	80012dc <HAL_GetTick>
 8001e38:	1bc0      	subs	r0, r0, r7
 8001e3a:	42b0      	cmp	r0, r6
 8001e3c:	d3d8      	bcc.n	8001df0 <HAL_SPI_Transmit+0x9c>
 8001e3e:	1c71      	adds	r1, r6, #1
 8001e40:	d0d6      	beq.n	8001df0 <HAL_SPI_Transmit+0x9c>
          errorcode = HAL_TIMEOUT;
 8001e42:	2003      	movs	r0, #3
  hspi->State = HAL_SPI_STATE_READY;
 8001e44:	2301      	movs	r3, #1
 8001e46:	f884 3051 	strb.w	r3, [r4, #81]	; 0x51
  __HAL_UNLOCK(hspi);
 8001e4a:	2300      	movs	r3, #0
 8001e4c:	f884 3050 	strb.w	r3, [r4, #80]	; 0x50
}
 8001e50:	b002      	add	sp, #8
 8001e52:	e8bd 81f0 	ldmia.w	sp!, {r4, r5, r6, r7, r8, pc}
    if ((hspi->Init.Mode == SPI_MODE_SLAVE) || (initial_TxXferCount == 0x01U))
 8001e56:	b113      	cbz	r3, 8001e5e <HAL_SPI_Transmit+0x10a>
 8001e58:	f1b8 0f01 	cmp.w	r8, #1
 8001e5c:	d108      	bne.n	8001e70 <HAL_SPI_Transmit+0x11c>
      *((__IO uint8_t *)&hspi->Instance->DR) = (*hspi->pTxBuffPtr);
 8001e5e:	782b      	ldrb	r3, [r5, #0]
 8001e60:	7303      	strb	r3, [r0, #12]
        hspi->pTxBuffPtr += sizeof(uint8_t);
 8001e62:	6b23      	ldr	r3, [r4, #48]	; 0x30
 8001e64:	3301      	adds	r3, #1
 8001e66:	6323      	str	r3, [r4, #48]	; 0x30
        hspi->TxXferCount--;
 8001e68:	8ee3      	ldrh	r3, [r4, #54]	; 0x36
 8001e6a:	3b01      	subs	r3, #1
 8001e6c:	b29b      	uxth	r3, r3
 8001e6e:	86e3      	strh	r3, [r4, #54]	; 0x36
    while (hspi->TxXferCount > 0U)
 8001e70:	8ee3      	ldrh	r3, [r4, #54]	; 0x36
 8001e72:	b29b      	uxth	r3, r3
 8001e74:	2b00      	cmp	r3, #0
 8001e76:	d0be      	beq.n	8001df6 <HAL_SPI_Transmit+0xa2>
      if (__HAL_SPI_GET_FLAG(hspi, SPI_FLAG_TXE))
 8001e78:	6823      	ldr	r3, [r4, #0]
 8001e7a:	689a      	ldr	r2, [r3, #8]
 8001e7c:	0792      	lsls	r2, r2, #30
 8001e7e:	d503      	bpl.n	8001e88 <HAL_SPI_Transmit+0x134>
        *((__IO uint8_t *)&hspi->Instance->DR) = (*hspi->pTxBuffPtr);
 8001e80:	6b22      	ldr	r2, [r4, #48]	; 0x30
 8001e82:	7812      	ldrb	r2, [r2, #0]
 8001e84:	731a      	strb	r2, [r3, #12]
 8001e86:	e7ec      	b.n	8001e62 <HAL_SPI_Transmit+0x10e>
        if ((((HAL_GetTick() - tickstart) >=  Timeout) && (Timeout != HAL_MAX_DELAY)) || (Timeout == 0U))
 8001e88:	f7ff fa28 	bl	80012dc <HAL_GetTick>
 8001e8c:	1bc0      	subs	r0, r0, r7
 8001e8e:	42b0      	cmp	r0, r6
 8001e90:	d3ee      	bcc.n	8001e70 <HAL_SPI_Transmit+0x11c>
 8001e92:	1c73      	adds	r3, r6, #1
 8001e94:	d0ec      	beq.n	8001e70 <HAL_SPI_Transmit+0x11c>
 8001e96:	e7d4      	b.n	8001e42 <HAL_SPI_Transmit+0xee>
    hspi->ErrorCode = HAL_SPI_ERROR_FLAG;
 8001e98:	2320      	movs	r3, #32
 8001e9a:	6563      	str	r3, [r4, #84]	; 0x54
 8001e9c:	e7b2      	b.n	8001e04 <HAL_SPI_Transmit+0xb0>
    errorcode = HAL_BUSY;
 8001e9e:	2002      	movs	r0, #2
 8001ea0:	e7d0      	b.n	8001e44 <HAL_SPI_Transmit+0xf0>
  __HAL_LOCK(hspi);
 8001ea2:	2002      	movs	r0, #2
 8001ea4:	e7d4      	b.n	8001e50 <HAL_SPI_Transmit+0xfc>
	...

08001ea8 <TIM_OC1_SetConfig>:
  uint32_t tmpccmrx;
  uint32_t tmpccer;
  uint32_t tmpcr2;

  /* Disable the Channel 1: Reset the CC1E Bit */
  TIMx->CCER &= ~TIM_CCER_CC1E;
 8001ea8:	6a03      	ldr	r3, [r0, #32]
{
 8001eaa:	b570      	push	{r4, r5, r6, lr}
  TIMx->CCER &= ~TIM_CCER_CC1E;
 8001eac:	f023 0301 	bic.w	r3, r3, #1
 8001eb0:	6203      	str	r3, [r0, #32]

  /* Get the TIMx CCER register value */
  tmpccer = TIMx->CCER;
 8001eb2:	6a03      	ldr	r3, [r0, #32]
  /* Get the TIMx CR2 register value */
  tmpcr2 =  TIMx->CR2;
 8001eb4:	6844      	ldr	r4, [r0, #4]

  /* Get the TIMx CCMR1 register value */
  tmpccmrx = TIMx->CCMR1;
 8001eb6:	6982      	ldr	r2, [r0, #24]

  /* Reset the Output Compare Mode Bits */
  tmpccmrx &= ~TIM_CCMR1_OC1M;
  tmpccmrx &= ~TIM_CCMR1_CC1S;
  /* Select the Output Compare Mode */
  tmpccmrx |= OC_Config->OCMode;
 8001eb8:	680d      	ldr	r5, [r1, #0]
  tmpccmrx &= ~TIM_CCMR1_CC1S;
 8001eba:	f022 0273 	bic.w	r2, r2, #115	; 0x73
  tmpccmrx |= OC_Config->OCMode;
 8001ebe:	432a      	orrs	r2, r5

  /* Reset the Output Polarity level */
  tmpccer &= ~TIM_CCER_CC1P;
  /* Set the Output Compare Polarity */
  tmpccer |= OC_Config->OCPolarity;
 8001ec0:	688d      	ldr	r5, [r1, #8]
  tmpccer &= ~TIM_CCER_CC1P;
 8001ec2:	f023 0302 	bic.w	r3, r3, #2
  tmpccer |= OC_Config->OCPolarity;
 8001ec6:	432b      	orrs	r3, r5

  if (IS_TIM_CCXN_INSTANCE(TIMx, TIM_CHANNEL_1))
 8001ec8:	4d0a      	ldr	r5, [pc, #40]	; (8001ef4 <TIM_OC1_SetConfig+0x4c>)
 8001eca:	42a8      	cmp	r0, r5
 8001ecc:	d10b      	bne.n	8001ee6 <TIM_OC1_SetConfig+0x3e>
    assert_param(IS_TIM_OCN_POLARITY(OC_Config->OCNPolarity));

    /* Reset the Output N Polarity level */
    tmpccer &= ~TIM_CCER_CC1NP;
    /* Set the Output N Polarity */
    tmpccer |= OC_Config->OCNPolarity;
 8001ece:	68cd      	ldr	r5, [r1, #12]
    tmpccer &= ~TIM_CCER_CC1NP;
 8001ed0:	f023 0308 	bic.w	r3, r3, #8
    tmpccer |= OC_Config->OCNPolarity;
 8001ed4:	432b      	orrs	r3, r5
    assert_param(IS_TIM_OCNIDLE_STATE(OC_Config->OCNIdleState));
    assert_param(IS_TIM_OCIDLE_STATE(OC_Config->OCIdleState));

    /* Reset the Output Compare and Output Compare N IDLE State */
    tmpcr2 &= ~TIM_CR2_OIS1;
    tmpcr2 &= ~TIM_CR2_OIS1N;
 8001ed6:	f424 7440 	bic.w	r4, r4, #768	; 0x300
    /* Set the Output Idle state */
    tmpcr2 |= OC_Config->OCIdleState;
    /* Set the Output N Idle state */
    tmpcr2 |= OC_Config->OCNIdleState;
 8001eda:	e9d1 5605 	ldrd	r5, r6, [r1, #20]
 8001ede:	4335      	orrs	r5, r6
    tmpccer &= ~TIM_CCER_CC1NE;
 8001ee0:	f023 0304 	bic.w	r3, r3, #4
    tmpcr2 |= OC_Config->OCNIdleState;
 8001ee4:	432c      	orrs	r4, r5
  }

  /* Write to TIMx CR2 */
  TIMx->CR2 = tmpcr2;
 8001ee6:	6044      	str	r4, [r0, #4]

  /* Write to TIMx CCMR1 */
  TIMx->CCMR1 = tmpccmrx;
 8001ee8:	6182      	str	r2, [r0, #24]

  /* Set the Capture Compare Register value */
  TIMx->CCR1 = OC_Config->Pulse;
 8001eea:	684a      	ldr	r2, [r1, #4]
 8001eec:	6342      	str	r2, [r0, #52]	; 0x34

  /* Write to TIMx CCER */
  TIMx->CCER = tmpccer;
 8001eee:	6203      	str	r3, [r0, #32]
}
 8001ef0:	bd70      	pop	{r4, r5, r6, pc}
 8001ef2:	bf00      	nop
 8001ef4:	40012c00 	.word	0x40012c00

08001ef8 <TIM_OC3_SetConfig>:
  uint32_t tmpccmrx;
  uint32_t tmpccer;
  uint32_t tmpcr2;

  /* Disable the Channel 3: Reset the CC2E Bit */
  TIMx->CCER &= ~TIM_CCER_CC3E;
 8001ef8:	6a03      	ldr	r3, [r0, #32]
{
 8001efa:	b570      	push	{r4, r5, r6, lr}
  TIMx->CCER &= ~TIM_CCER_CC3E;
 8001efc:	f423 7380 	bic.w	r3, r3, #256	; 0x100
 8001f00:	6203      	str	r3, [r0, #32]

  /* Get the TIMx CCER register value */
  tmpccer = TIMx->CCER;
 8001f02:	6a03      	ldr	r3, [r0, #32]
  /* Get the TIMx CR2 register value */
  tmpcr2 =  TIMx->CR2;
 8001f04:	6844      	ldr	r4, [r0, #4]

  /* Get the TIMx CCMR2 register value */
  tmpccmrx = TIMx->CCMR2;
 8001f06:	69c2      	ldr	r2, [r0, #28]

  /* Reset the Output Compare mode and Capture/Compare selection Bits */
  tmpccmrx &= ~TIM_CCMR2_OC3M;
  tmpccmrx &= ~TIM_CCMR2_CC3S;
  /* Select the Output Compare Mode */
  tmpccmrx |= OC_Config->OCMode;
 8001f08:	680d      	ldr	r5, [r1, #0]
  tmpccmrx &= ~TIM_CCMR2_CC3S;
 8001f0a:	f022 0273 	bic.w	r2, r2, #115	; 0x73
  tmpccmrx |= OC_Config->OCMode;
 8001f0e:	432a      	orrs	r2, r5

  /* Reset the Output Polarity level */
  tmpccer &= ~TIM_CCER_CC3P;
  /* Set the Output Compare Polarity */
  tmpccer |= (OC_Config->OCPolarity << 8U);
 8001f10:	688d      	ldr	r5, [r1, #8]
  tmpccer &= ~TIM_CCER_CC3P;
 8001f12:	f423 7300 	bic.w	r3, r3, #512	; 0x200
  tmpccer |= (OC_Config->OCPolarity << 8U);
 8001f16:	ea43 2305 	orr.w	r3, r3, r5, lsl #8

  if (IS_TIM_CCXN_INSTANCE(TIMx, TIM_CHANNEL_3))
 8001f1a:	4d0b      	ldr	r5, [pc, #44]	; (8001f48 <TIM_OC3_SetConfig+0x50>)
 8001f1c:	42a8      	cmp	r0, r5
 8001f1e:	d10d      	bne.n	8001f3c <TIM_OC3_SetConfig+0x44>
    assert_param(IS_TIM_OCN_POLARITY(OC_Config->OCNPolarity));

    /* Reset the Output N Polarity level */
    tmpccer &= ~TIM_CCER_CC3NP;
    /* Set the Output N Polarity */
    tmpccer |= (OC_Config->OCNPolarity << 8U);
 8001f20:	68cd      	ldr	r5, [r1, #12]
    tmpccer &= ~TIM_CCER_CC3NP;
 8001f22:	f423 6300 	bic.w	r3, r3, #2048	; 0x800
    tmpccer |= (OC_Config->OCNPolarity << 8U);
 8001f26:	ea43 2305 	orr.w	r3, r3, r5, lsl #8
    assert_param(IS_TIM_OCNIDLE_STATE(OC_Config->OCNIdleState));
    assert_param(IS_TIM_OCIDLE_STATE(OC_Config->OCIdleState));

    /* Reset the Output Compare and Output Compare N IDLE State */
    tmpcr2 &= ~TIM_CR2_OIS3;
    tmpcr2 &= ~TIM_CR2_OIS3N;
 8001f2a:	f424 5440 	bic.w	r4, r4, #12288	; 0x3000
    /* Set the Output Idle state */
    tmpcr2 |= (OC_Config->OCIdleState << 4U);
    /* Set the Output N Idle state */
    tmpcr2 |= (OC_Config->OCNIdleState << 4U);
 8001f2e:	e9d1 5605 	ldrd	r5, r6, [r1, #20]
 8001f32:	4335      	orrs	r5, r6
    tmpccer &= ~TIM_CCER_CC3NE;
 8001f34:	f423 6380 	bic.w	r3, r3, #1024	; 0x400
    tmpcr2 |= (OC_Config->OCNIdleState << 4U);
 8001f38:	ea44 1405 	orr.w	r4, r4, r5, lsl #4
  }

  /* Write to TIMx CR2 */
  TIMx->CR2 = tmpcr2;
 8001f3c:	6044      	str	r4, [r0, #4]

  /* Write to TIMx CCMR2 */
  TIMx->CCMR2 = tmpccmrx;
 8001f3e:	61c2      	str	r2, [r0, #28]

  /* Set the Capture Compare Register value */
  TIMx->CCR3 = OC_Config->Pulse;
 8001f40:	684a      	ldr	r2, [r1, #4]
 8001f42:	63c2      	str	r2, [r0, #60]	; 0x3c

  /* Write to TIMx CCER */
  TIMx->CCER = tmpccer;
 8001f44:	6203      	str	r3, [r0, #32]
}
 8001f46:	bd70      	pop	{r4, r5, r6, pc}
 8001f48:	40012c00 	.word	0x40012c00

08001f4c <TIM_OC4_SetConfig>:
  uint32_t tmpccmrx;
  uint32_t tmpccer;
  uint32_t tmpcr2;

  /* Disable the Channel 4: Reset the CC4E Bit */
  TIMx->CCER &= ~TIM_CCER_CC4E;
 8001f4c:	6a03      	ldr	r3, [r0, #32]
{
 8001f4e:	b530      	push	{r4, r5, lr}
  TIMx->CCER &= ~TIM_CCER_CC4E;
 8001f50:	f423 5380 	bic.w	r3, r3, #4096	; 0x1000
 8001f54:	6203      	str	r3, [r0, #32]

  /* Get the TIMx CCER register value */
  tmpccer = TIMx->CCER;
 8001f56:	6a03      	ldr	r3, [r0, #32]
  /* Get the TIMx CR2 register value */
  tmpcr2 =  TIMx->CR2;
 8001f58:	6844      	ldr	r4, [r0, #4]

  /* Get the TIMx CCMR2 register value */
  tmpccmrx = TIMx->CCMR2;
 8001f5a:	69c2      	ldr	r2, [r0, #28]
  /* Reset the Output Compare mode and Capture/Compare selection Bits */
  tmpccmrx &= ~TIM_CCMR2_OC4M;
  tmpccmrx &= ~TIM_CCMR2_CC4S;

  /* Select the Output Compare Mode */
  tmpccmrx |= (OC_Config->OCMode << 8U);
 8001f5c:	680d      	ldr	r5, [r1, #0]
  tmpccmrx &= ~TIM_CCMR2_CC4S;
 8001f5e:	f422 42e6 	bic.w	r2, r2, #29440	; 0x7300
  tmpccmrx |= (OC_Config->OCMode << 8U);
 8001f62:	ea42 2205 	orr.w	r2, r2, r5, lsl #8

  /* Reset the Output Polarity level */
  tmpccer &= ~TIM_CCER_CC4P;
  /* Set the Output Compare Polarity */
  tmpccer |= (OC_Config->OCPolarity << 12U);
 8001f66:	688d      	ldr	r5, [r1, #8]
  tmpccer &= ~TIM_CCER_CC4P;
 8001f68:	f423 5300 	bic.w	r3, r3, #8192	; 0x2000
  tmpccer |= (OC_Config->OCPolarity << 12U);
 8001f6c:	ea43 3305 	orr.w	r3, r3, r5, lsl #12

  if (IS_TIM_BREAK_INSTANCE(TIMx))
 8001f70:	4d06      	ldr	r5, [pc, #24]	; (8001f8c <TIM_OC4_SetConfig+0x40>)
 8001f72:	42a8      	cmp	r0, r5

    /* Reset the Output Compare IDLE State */
    tmpcr2 &= ~TIM_CR2_OIS4;

    /* Set the Output Idle state */
    tmpcr2 |= (OC_Config->OCIdleState << 6U);
 8001f74:	bf02      	ittt	eq
 8001f76:	694d      	ldreq	r5, [r1, #20]
    tmpcr2 &= ~TIM_CR2_OIS4;
 8001f78:	f424 4480 	biceq.w	r4, r4, #16384	; 0x4000
    tmpcr2 |= (OC_Config->OCIdleState << 6U);
 8001f7c:	ea44 1485 	orreq.w	r4, r4, r5, lsl #6
  }

  /* Write to TIMx CR2 */
  TIMx->CR2 = tmpcr2;
 8001f80:	6044      	str	r4, [r0, #4]

  /* Write to TIMx CCMR2 */
  TIMx->CCMR2 = tmpccmrx;
 8001f82:	61c2      	str	r2, [r0, #28]

  /* Set the Capture Compare Register value */
  TIMx->CCR4 = OC_Config->Pulse;
 8001f84:	684a      	ldr	r2, [r1, #4]
 8001f86:	6402      	str	r2, [r0, #64]	; 0x40

  /* Write to TIMx CCER */
  TIMx->CCER = tmpccer;
 8001f88:	6203      	str	r3, [r0, #32]
}
 8001f8a:	bd30      	pop	{r4, r5, pc}
 8001f8c:	40012c00 	.word	0x40012c00

08001f90 <HAL_TIM_Base_Start_IT>:
  __HAL_TIM_ENABLE_IT(htim, TIM_IT_UPDATE);
 8001f90:	6803      	ldr	r3, [r0, #0]
}
 8001f92:	2000      	movs	r0, #0
  __HAL_TIM_ENABLE_IT(htim, TIM_IT_UPDATE);
 8001f94:	68da      	ldr	r2, [r3, #12]
 8001f96:	f042 0201 	orr.w	r2, r2, #1
 8001f9a:	60da      	str	r2, [r3, #12]
  tmpsmcr = htim->Instance->SMCR & TIM_SMCR_SMS;
 8001f9c:	689a      	ldr	r2, [r3, #8]
 8001f9e:	f002 0207 	and.w	r2, r2, #7
  if (!IS_TIM_SLAVEMODE_TRIGGER_ENABLED(tmpsmcr))
 8001fa2:	2a06      	cmp	r2, #6
    __HAL_TIM_ENABLE(htim);
 8001fa4:	bf1e      	ittt	ne
 8001fa6:	681a      	ldrne	r2, [r3, #0]
 8001fa8:	f042 0201 	orrne.w	r2, r2, #1
 8001fac:	601a      	strne	r2, [r3, #0]
}
 8001fae:	4770      	bx	lr

08001fb0 <HAL_TIM_Base_Stop_IT>:
  __HAL_TIM_DISABLE_IT(htim, TIM_IT_UPDATE);
 8001fb0:	6803      	ldr	r3, [r0, #0]
 8001fb2:	68da      	ldr	r2, [r3, #12]
 8001fb4:	f022 0201 	bic.w	r2, r2, #1
 8001fb8:	60da      	str	r2, [r3, #12]
  __HAL_TIM_DISABLE(htim);
 8001fba:	f241 1211 	movw	r2, #4369	; 0x1111
 8001fbe:	6a19      	ldr	r1, [r3, #32]
 8001fc0:	4211      	tst	r1, r2
 8001fc2:	d108      	bne.n	8001fd6 <HAL_TIM_Base_Stop_IT+0x26>
 8001fc4:	f240 4244 	movw	r2, #1092	; 0x444
 8001fc8:	6a19      	ldr	r1, [r3, #32]
 8001fca:	4211      	tst	r1, r2
 8001fcc:	bf02      	ittt	eq
 8001fce:	681a      	ldreq	r2, [r3, #0]
 8001fd0:	f022 0201 	biceq.w	r2, r2, #1
 8001fd4:	601a      	streq	r2, [r3, #0]
}
 8001fd6:	2000      	movs	r0, #0
 8001fd8:	4770      	bx	lr

08001fda <HAL_TIM_PWM_MspInit>:
 8001fda:	4770      	bx	lr

08001fdc <HAL_TIM_OC_DelayElapsedCallback>:
 8001fdc:	4770      	bx	lr

08001fde <HAL_TIM_IC_CaptureCallback>:
 8001fde:	4770      	bx	lr

08001fe0 <HAL_TIM_PWM_PulseFinishedCallback>:
 8001fe0:	4770      	bx	lr

08001fe2 <HAL_TIM_TriggerCallback>:
 8001fe2:	4770      	bx	lr

08001fe4 <HAL_TIM_IRQHandler>:
  if (__HAL_TIM_GET_FLAG(htim, TIM_FLAG_CC1) != RESET)
 8001fe4:	6803      	ldr	r3, [r0, #0]
{
 8001fe6:	b510      	push	{r4, lr}
  if (__HAL_TIM_GET_FLAG(htim, TIM_FLAG_CC1) != RESET)
 8001fe8:	691a      	ldr	r2, [r3, #16]
{
 8001fea:	4604      	mov	r4, r0
  if (__HAL_TIM_GET_FLAG(htim, TIM_FLAG_CC1) != RESET)
 8001fec:	0791      	lsls	r1, r2, #30
 8001fee:	d50e      	bpl.n	800200e <HAL_TIM_IRQHandler+0x2a>
    if (__HAL_TIM_GET_IT_SOURCE(htim, TIM_IT_CC1) != RESET)
 8001ff0:	68da      	ldr	r2, [r3, #12]
 8001ff2:	0792      	lsls	r2, r2, #30
 8001ff4:	d50b      	bpl.n	800200e <HAL_TIM_IRQHandler+0x2a>
        __HAL_TIM_CLEAR_IT(htim, TIM_IT_CC1);
 8001ff6:	f06f 0202 	mvn.w	r2, #2
 8001ffa:	611a      	str	r2, [r3, #16]
        htim->Channel = HAL_TIM_ACTIVE_CHANNEL_1;
 8001ffc:	2201      	movs	r2, #1
        if ((htim->Instance->CCMR1 & TIM_CCMR1_CC1S) != 0x00U)
 8001ffe:	699b      	ldr	r3, [r3, #24]
        htim->Channel = HAL_TIM_ACTIVE_CHANNEL_1;
 8002000:	7702      	strb	r2, [r0, #28]
        if ((htim->Instance->CCMR1 & TIM_CCMR1_CC1S) != 0x00U)
 8002002:	079b      	lsls	r3, r3, #30
 8002004:	d077      	beq.n	80020f6 <HAL_TIM_IRQHandler+0x112>
          HAL_TIM_IC_CaptureCallback(htim);
 8002006:	f7ff ffea 	bl	8001fde <HAL_TIM_IC_CaptureCallback>
        htim->Channel = HAL_TIM_ACTIVE_CHANNEL_CLEARED;
 800200a:	2300      	movs	r3, #0
 800200c:	7723      	strb	r3, [r4, #28]
  if (__HAL_TIM_GET_FLAG(htim, TIM_FLAG_CC2) != RESET)
 800200e:	6823      	ldr	r3, [r4, #0]
 8002010:	691a      	ldr	r2, [r3, #16]
 8002012:	0750      	lsls	r0, r2, #29
 8002014:	d510      	bpl.n	8002038 <HAL_TIM_IRQHandler+0x54>
    if (__HAL_TIM_GET_IT_SOURCE(htim, TIM_IT_CC2) != RESET)
 8002016:	68da      	ldr	r2, [r3, #12]
 8002018:	0751      	lsls	r1, r2, #29
 800201a:	d50d      	bpl.n	8002038 <HAL_TIM_IRQHandler+0x54>
      __HAL_TIM_CLEAR_IT(htim, TIM_IT_CC2);
 800201c:	f06f 0204 	mvn.w	r2, #4
 8002020:	611a      	str	r2, [r3, #16]
      htim->Channel = HAL_TIM_ACTIVE_CHANNEL_2;
 8002022:	2202      	movs	r2, #2
      if ((htim->Instance->CCMR1 & TIM_CCMR1_CC2S) != 0x00U)
 8002024:	699b      	ldr	r3, [r3, #24]
      htim->Channel = HAL_TIM_ACTIVE_CHANNEL_2;
 8002026:	7722      	strb	r2, [r4, #28]
      if ((htim->Instance->CCMR1 & TIM_CCMR1_CC2S) != 0x00U)
 8002028:	f413 7f40 	tst.w	r3, #768	; 0x300
        HAL_TIM_IC_CaptureCallback(htim);
 800202c:	4620      	mov	r0, r4
      if ((htim->Instance->CCMR1 & TIM_CCMR1_CC2S) != 0x00U)
 800202e:	d068      	beq.n	8002102 <HAL_TIM_IRQHandler+0x11e>
        HAL_TIM_IC_CaptureCallback(htim);
 8002030:	f7ff ffd5 	bl	8001fde <HAL_TIM_IC_CaptureCallback>
      htim->Channel = HAL_TIM_ACTIVE_CHANNEL_CLEARED;
 8002034:	2300      	movs	r3, #0
 8002036:	7723      	strb	r3, [r4, #28]
  if (__HAL_TIM_GET_FLAG(htim, TIM_FLAG_CC3) != RESET)
 8002038:	6823      	ldr	r3, [r4, #0]
 800203a:	691a      	ldr	r2, [r3, #16]
 800203c:	0712      	lsls	r2, r2, #28
 800203e:	d50f      	bpl.n	8002060 <HAL_TIM_IRQHandler+0x7c>
    if (__HAL_TIM_GET_IT_SOURCE(htim, TIM_IT_CC3) != RESET)
 8002040:	68da      	ldr	r2, [r3, #12]
 8002042:	0710      	lsls	r0, r2, #28
 8002044:	d50c      	bpl.n	8002060 <HAL_TIM_IRQHandler+0x7c>
      __HAL_TIM_CLEAR_IT(htim, TIM_IT_CC3);
 8002046:	f06f 0208 	mvn.w	r2, #8
 800204a:	611a      	str	r2, [r3, #16]
      htim->Channel = HAL_TIM_ACTIVE_CHANNEL_3;
 800204c:	2204      	movs	r2, #4
      if ((htim->Instance->CCMR2 & TIM_CCMR2_CC3S) != 0x00U)
 800204e:	69db      	ldr	r3, [r3, #28]
      htim->Channel = HAL_TIM_ACTIVE_CHANNEL_3;
 8002050:	7722      	strb	r2, [r4, #28]
      if ((htim->Instance->CCMR2 & TIM_CCMR2_CC3S) != 0x00U)
 8002052:	0799      	lsls	r1, r3, #30
        HAL_TIM_IC_CaptureCallback(htim);
 8002054:	4620      	mov	r0, r4
      if ((htim->Instance->CCMR2 & TIM_CCMR2_CC3S) != 0x00U)
 8002056:	d05a      	beq.n	800210e <HAL_TIM_IRQHandler+0x12a>
        HAL_TIM_IC_CaptureCallback(htim);
 8002058:	f7ff ffc1 	bl	8001fde <HAL_TIM_IC_CaptureCallback>
      htim->Channel = HAL_TIM_ACTIVE_CHANNEL_CLEARED;
 800205c:	2300      	movs	r3, #0
 800205e:	7723      	strb	r3, [r4, #28]
  if (__HAL_TIM_GET_FLAG(htim, TIM_FLAG_CC4) != RESET)
 8002060:	6823      	ldr	r3, [r4, #0]
 8002062:	691a      	ldr	r2, [r3, #16]
 8002064:	06d2      	lsls	r2, r2, #27
 8002066:	d510      	bpl.n	800208a <HAL_TIM_IRQHandler+0xa6>
    if (__HAL_TIM_GET_IT_SOURCE(htim, TIM_IT_CC4) != RESET)
 8002068:	68da      	ldr	r2, [r3, #12]
 800206a:	06d0      	lsls	r0, r2, #27
 800206c:	d50d      	bpl.n	800208a <HAL_TIM_IRQHandler+0xa6>
      __HAL_TIM_CLEAR_IT(htim, TIM_IT_CC4);
 800206e:	f06f 0210 	mvn.w	r2, #16
 8002072:	611a      	str	r2, [r3, #16]
      htim->Channel = HAL_TIM_ACTIVE_CHANNEL_4;
 8002074:	2208      	movs	r2, #8
      if ((htim->Instance->CCMR2 & TIM_CCMR2_CC4S) != 0x00U)
 8002076:	69db      	ldr	r3, [r3, #28]
      htim->Channel = HAL_TIM_ACTIVE_CHANNEL_4;
 8002078:	7722      	strb	r2, [r4, #28]
      if ((htim->Instance->CCMR2 & TIM_CCMR2_CC4S) != 0x00U)
 800207a:	f413 7f40 	tst.w	r3, #768	; 0x300
        HAL_TIM_IC_CaptureCallback(htim);
 800207e:	4620      	mov	r0, r4
      if ((htim->Instance->CCMR2 & TIM_CCMR2_CC4S) != 0x00U)
 8002080:	d04b      	beq.n	800211a <HAL_TIM_IRQHandler+0x136>
        HAL_TIM_IC_CaptureCallback(htim);
 8002082:	f7ff ffac 	bl	8001fde <HAL_TIM_IC_CaptureCallback>
      htim->Channel = HAL_TIM_ACTIVE_CHANNEL_CLEARED;
 8002086:	2300      	movs	r3, #0
 8002088:	7723      	strb	r3, [r4, #28]
  if (__HAL_TIM_GET_FLAG(htim, TIM_FLAG_UPDATE) != RESET)
 800208a:	6823      	ldr	r3, [r4, #0]
 800208c:	691a      	ldr	r2, [r3, #16]
 800208e:	07d1      	lsls	r1, r2, #31
 8002090:	d508      	bpl.n	80020a4 <HAL_TIM_IRQHandler+0xc0>
    if (__HAL_TIM_GET_IT_SOURCE(htim, TIM_IT_UPDATE) != RESET)
 8002092:	68da      	ldr	r2, [r3, #12]
 8002094:	07d2      	lsls	r2, r2, #31
 8002096:	d505      	bpl.n	80020a4 <HAL_TIM_IRQHandler+0xc0>
      __HAL_TIM_CLEAR_IT(htim, TIM_IT_UPDATE);
 8002098:	f06f 0201 	mvn.w	r2, #1
      HAL_TIM_PeriodElapsedCallback(htim);
 800209c:	4620      	mov	r0, r4
      __HAL_TIM_CLEAR_IT(htim, TIM_IT_UPDATE);
 800209e:	611a      	str	r2, [r3, #16]
      HAL_TIM_PeriodElapsedCallback(htim);
 80020a0:	f7fe fc5e 	bl	8000960 <HAL_TIM_PeriodElapsedCallback>
  if (__HAL_TIM_GET_FLAG(htim, TIM_FLAG_BREAK) != RESET)
 80020a4:	6823      	ldr	r3, [r4, #0]
 80020a6:	691a      	ldr	r2, [r3, #16]
 80020a8:	0610      	lsls	r0, r2, #24
 80020aa:	d508      	bpl.n	80020be <HAL_TIM_IRQHandler+0xda>
    if (__HAL_TIM_GET_IT_SOURCE(htim, TIM_IT_BREAK) != RESET)
 80020ac:	68da      	ldr	r2, [r3, #12]
 80020ae:	0611      	lsls	r1, r2, #24
 80020b0:	d505      	bpl.n	80020be <HAL_TIM_IRQHandler+0xda>
      __HAL_TIM_CLEAR_IT(htim, TIM_IT_BREAK);
 80020b2:	f06f 0280 	mvn.w	r2, #128	; 0x80
      HAL_TIMEx_BreakCallback(htim);
 80020b6:	4620      	mov	r0, r4
      __HAL_TIM_CLEAR_IT(htim, TIM_IT_BREAK);
 80020b8:	611a      	str	r2, [r3, #16]
      HAL_TIMEx_BreakCallback(htim);
 80020ba:	f000 fa18 	bl	80024ee <HAL_TIMEx_BreakCallback>
  if (__HAL_TIM_GET_FLAG(htim, TIM_FLAG_TRIGGER) != RESET)
 80020be:	6823      	ldr	r3, [r4, #0]
 80020c0:	691a      	ldr	r2, [r3, #16]
 80020c2:	0652      	lsls	r2, r2, #25
 80020c4:	d508      	bpl.n	80020d8 <HAL_TIM_IRQHandler+0xf4>
    if (__HAL_TIM_GET_IT_SOURCE(htim, TIM_IT_TRIGGER) != RESET)
 80020c6:	68da      	ldr	r2, [r3, #12]
 80020c8:	0650      	lsls	r0, r2, #25
 80020ca:	d505      	bpl.n	80020d8 <HAL_TIM_IRQHandler+0xf4>
      __HAL_TIM_CLEAR_IT(htim, TIM_IT_TRIGGER);
 80020cc:	f06f 0240 	mvn.w	r2, #64	; 0x40
      HAL_TIM_TriggerCallback(htim);
 80020d0:	4620      	mov	r0, r4
      __HAL_TIM_CLEAR_IT(htim, TIM_IT_TRIGGER);
 80020d2:	611a      	str	r2, [r3, #16]
      HAL_TIM_TriggerCallback(htim);
 80020d4:	f7ff ff85 	bl	8001fe2 <HAL_TIM_TriggerCallback>
  if (__HAL_TIM_GET_FLAG(htim, TIM_FLAG_COM) != RESET)
 80020d8:	6823      	ldr	r3, [r4, #0]
 80020da:	691a      	ldr	r2, [r3, #16]
 80020dc:	0691      	lsls	r1, r2, #26
 80020de:	d522      	bpl.n	8002126 <HAL_TIM_IRQHandler+0x142>
    if (__HAL_TIM_GET_IT_SOURCE(htim, TIM_IT_COM) != RESET)
 80020e0:	68da      	ldr	r2, [r3, #12]
 80020e2:	0692      	lsls	r2, r2, #26
 80020e4:	d51f      	bpl.n	8002126 <HAL_TIM_IRQHandler+0x142>
      __HAL_TIM_CLEAR_IT(htim, TIM_FLAG_COM);
 80020e6:	f06f 0220 	mvn.w	r2, #32
      HAL_TIMEx_CommutCallback(htim);
 80020ea:	4620      	mov	r0, r4
}
 80020ec:	e8bd 4010 	ldmia.w	sp!, {r4, lr}
      __HAL_TIM_CLEAR_IT(htim, TIM_FLAG_COM);
 80020f0:	611a      	str	r2, [r3, #16]
      HAL_TIMEx_CommutCallback(htim);
 80020f2:	f000 b9fb 	b.w	80024ec <HAL_TIMEx_CommutCallback>
          HAL_TIM_OC_DelayElapsedCallback(htim);
 80020f6:	f7ff ff71 	bl	8001fdc <HAL_TIM_OC_DelayElapsedCallback>
          HAL_TIM_PWM_PulseFinishedCallback(htim);
 80020fa:	4620      	mov	r0, r4
 80020fc:	f7ff ff70 	bl	8001fe0 <HAL_TIM_PWM_PulseFinishedCallback>
 8002100:	e783      	b.n	800200a <HAL_TIM_IRQHandler+0x26>
        HAL_TIM_OC_DelayElapsedCallback(htim);
 8002102:	f7ff ff6b 	bl	8001fdc <HAL_TIM_OC_DelayElapsedCallback>
        HAL_TIM_PWM_PulseFinishedCallback(htim);
 8002106:	4620      	mov	r0, r4
 8002108:	f7ff ff6a 	bl	8001fe0 <HAL_TIM_PWM_PulseFinishedCallback>
 800210c:	e792      	b.n	8002034 <HAL_TIM_IRQHandler+0x50>
        HAL_TIM_OC_DelayElapsedCallback(htim);
 800210e:	f7ff ff65 	bl	8001fdc <HAL_TIM_OC_DelayElapsedCallback>
        HAL_TIM_PWM_PulseFinishedCallback(htim);
 8002112:	4620      	mov	r0, r4
 8002114:	f7ff ff64 	bl	8001fe0 <HAL_TIM_PWM_PulseFinishedCallback>
 8002118:	e7a0      	b.n	800205c <HAL_TIM_IRQHandler+0x78>
        HAL_TIM_OC_DelayElapsedCallback(htim);
 800211a:	f7ff ff5f 	bl	8001fdc <HAL_TIM_OC_DelayElapsedCallback>
        HAL_TIM_PWM_PulseFinishedCallback(htim);
 800211e:	4620      	mov	r0, r4
 8002120:	f7ff ff5e 	bl	8001fe0 <HAL_TIM_PWM_PulseFinishedCallback>
 8002124:	e7af      	b.n	8002086 <HAL_TIM_IRQHandler+0xa2>
}
 8002126:	bd10      	pop	{r4, pc}

08002128 <TIM_Base_SetConfig>:
  if (IS_TIM_COUNTER_MODE_SELECT_INSTANCE(TIMx))
 8002128:	4a1a      	ldr	r2, [pc, #104]	; (8002194 <TIM_Base_SetConfig+0x6c>)
  tmpcr1 = TIMx->CR1;
 800212a:	6803      	ldr	r3, [r0, #0]
  if (IS_TIM_COUNTER_MODE_SELECT_INSTANCE(TIMx))
 800212c:	4290      	cmp	r0, r2
 800212e:	d00a      	beq.n	8002146 <TIM_Base_SetConfig+0x1e>
 8002130:	f1b0 4f80 	cmp.w	r0, #1073741824	; 0x40000000
 8002134:	d007      	beq.n	8002146 <TIM_Base_SetConfig+0x1e>
 8002136:	f5a2 3294 	sub.w	r2, r2, #75776	; 0x12800
 800213a:	4290      	cmp	r0, r2
 800213c:	d003      	beq.n	8002146 <TIM_Base_SetConfig+0x1e>
 800213e:	f502 6280 	add.w	r2, r2, #1024	; 0x400
 8002142:	4290      	cmp	r0, r2
 8002144:	d115      	bne.n	8002172 <TIM_Base_SetConfig+0x4a>
    tmpcr1 |= Structure->CounterMode;
 8002146:	684a      	ldr	r2, [r1, #4]
    tmpcr1 &= ~(TIM_CR1_DIR | TIM_CR1_CMS);
 8002148:	f023 0370 	bic.w	r3, r3, #112	; 0x70
    tmpcr1 |= Structure->CounterMode;
 800214c:	4313      	orrs	r3, r2
  if (IS_TIM_CLOCK_DIVISION_INSTANCE(TIMx))
 800214e:	4a11      	ldr	r2, [pc, #68]	; (8002194 <TIM_Base_SetConfig+0x6c>)
 8002150:	4290      	cmp	r0, r2
 8002152:	d00a      	beq.n	800216a <TIM_Base_SetConfig+0x42>
 8002154:	f1b0 4f80 	cmp.w	r0, #1073741824	; 0x40000000
 8002158:	d007      	beq.n	800216a <TIM_Base_SetConfig+0x42>
 800215a:	f5a2 3294 	sub.w	r2, r2, #75776	; 0x12800
 800215e:	4290      	cmp	r0, r2
 8002160:	d003      	beq.n	800216a <TIM_Base_SetConfig+0x42>
 8002162:	f502 6280 	add.w	r2, r2, #1024	; 0x400
 8002166:	4290      	cmp	r0, r2
 8002168:	d103      	bne.n	8002172 <TIM_Base_SetConfig+0x4a>
    tmpcr1 |= (uint32_t)Structure->ClockDivision;
 800216a:	68ca      	ldr	r2, [r1, #12]
    tmpcr1 &= ~TIM_CR1_CKD;
 800216c:	f423 7340 	bic.w	r3, r3, #768	; 0x300
    tmpcr1 |= (uint32_t)Structure->ClockDivision;
 8002170:	4313      	orrs	r3, r2
  MODIFY_REG(tmpcr1, TIM_CR1_ARPE, Structure->AutoReloadPreload);
 8002172:	694a      	ldr	r2, [r1, #20]
 8002174:	f023 0380 	bic.w	r3, r3, #128	; 0x80
 8002178:	4313      	orrs	r3, r2
  TIMx->CR1 = tmpcr1;
 800217a:	6003      	str	r3, [r0, #0]
  TIMx->ARR = (uint32_t)Structure->Period ;
 800217c:	688b      	ldr	r3, [r1, #8]
 800217e:	62c3      	str	r3, [r0, #44]	; 0x2c
  TIMx->PSC = Structure->Prescaler;
 8002180:	680b      	ldr	r3, [r1, #0]
 8002182:	6283      	str	r3, [r0, #40]	; 0x28
  if (IS_TIM_REPETITION_COUNTER_INSTANCE(TIMx))
 8002184:	4b03      	ldr	r3, [pc, #12]	; (8002194 <TIM_Base_SetConfig+0x6c>)
 8002186:	4298      	cmp	r0, r3
    TIMx->RCR = Structure->RepetitionCounter;
 8002188:	bf04      	itt	eq
 800218a:	690b      	ldreq	r3, [r1, #16]
 800218c:	6303      	streq	r3, [r0, #48]	; 0x30
  TIMx->EGR = TIM_EGR_UG;
 800218e:	2301      	movs	r3, #1
 8002190:	6143      	str	r3, [r0, #20]
}
 8002192:	4770      	bx	lr
 8002194:	40012c00 	.word	0x40012c00

08002198 <HAL_TIM_Base_Init>:
{
 8002198:	b510      	push	{r4, lr}
  if (htim == NULL)
 800219a:	4604      	mov	r4, r0
 800219c:	b1a0      	cbz	r0, 80021c8 <HAL_TIM_Base_Init+0x30>
  if (htim->State == HAL_TIM_STATE_RESET)
 800219e:	f890 303d 	ldrb.w	r3, [r0, #61]	; 0x3d
 80021a2:	f003 02ff 	and.w	r2, r3, #255	; 0xff
 80021a6:	b91b      	cbnz	r3, 80021b0 <HAL_TIM_Base_Init+0x18>
    htim->Lock = HAL_UNLOCKED;
 80021a8:	f880 203c 	strb.w	r2, [r0, #60]	; 0x3c
    HAL_TIM_Base_MspInit(htim);
 80021ac:	f7fe fe6a 	bl	8000e84 <HAL_TIM_Base_MspInit>
  htim->State = HAL_TIM_STATE_BUSY;
 80021b0:	2302      	movs	r3, #2
  TIM_Base_SetConfig(htim->Instance, &htim->Init);
 80021b2:	6820      	ldr	r0, [r4, #0]
  htim->State = HAL_TIM_STATE_BUSY;
 80021b4:	f884 303d 	strb.w	r3, [r4, #61]	; 0x3d
  TIM_Base_SetConfig(htim->Instance, &htim->Init);
 80021b8:	1d21      	adds	r1, r4, #4
 80021ba:	f7ff ffb5 	bl	8002128 <TIM_Base_SetConfig>
  htim->State = HAL_TIM_STATE_READY;
 80021be:	2301      	movs	r3, #1
  return HAL_OK;
 80021c0:	2000      	movs	r0, #0
  htim->State = HAL_TIM_STATE_READY;
 80021c2:	f884 303d 	strb.w	r3, [r4, #61]	; 0x3d
}
 80021c6:	bd10      	pop	{r4, pc}
    return HAL_ERROR;
 80021c8:	2001      	movs	r0, #1
 80021ca:	e7fc      	b.n	80021c6 <HAL_TIM_Base_Init+0x2e>

080021cc <HAL_TIM_PWM_Init>:
{
 80021cc:	b510      	push	{r4, lr}
  if (htim == NULL)
 80021ce:	4604      	mov	r4, r0
 80021d0:	b1a0      	cbz	r0, 80021fc <HAL_TIM_PWM_Init+0x30>
  if (htim->State == HAL_TIM_STATE_RESET)
 80021d2:	f890 303d 	ldrb.w	r3, [r0, #61]	; 0x3d
 80021d6:	f003 02ff 	and.w	r2, r3, #255	; 0xff
 80021da:	b91b      	cbnz	r3, 80021e4 <HAL_TIM_PWM_Init+0x18>
    htim->Lock = HAL_UNLOCKED;
 80021dc:	f880 203c 	strb.w	r2, [r0, #60]	; 0x3c
    HAL_TIM_PWM_MspInit(htim);
 80021e0:	f7ff fefb 	bl	8001fda <HAL_TIM_PWM_MspInit>
  htim->State = HAL_TIM_STATE_BUSY;
 80021e4:	2302      	movs	r3, #2
  TIM_Base_SetConfig(htim->Instance, &htim->Init);
 80021e6:	6820      	ldr	r0, [r4, #0]
  htim->State = HAL_TIM_STATE_BUSY;
 80021e8:	f884 303d 	strb.w	r3, [r4, #61]	; 0x3d
  TIM_Base_SetConfig(htim->Instance, &htim->Init);
 80021ec:	1d21      	adds	r1, r4, #4
 80021ee:	f7ff ff9b 	bl	8002128 <TIM_Base_SetConfig>
  htim->State = HAL_TIM_STATE_READY;
 80021f2:	2301      	movs	r3, #1
  return HAL_OK;
 80021f4:	2000      	movs	r0, #0
  htim->State = HAL_TIM_STATE_READY;
 80021f6:	f884 303d 	strb.w	r3, [r4, #61]	; 0x3d
}
 80021fa:	bd10      	pop	{r4, pc}
    return HAL_ERROR;
 80021fc:	2001      	movs	r0, #1
 80021fe:	e7fc      	b.n	80021fa <HAL_TIM_PWM_Init+0x2e>

08002200 <TIM_OC2_SetConfig>:
  TIMx->CCER &= ~TIM_CCER_CC2E;
 8002200:	6a03      	ldr	r3, [r0, #32]
{
 8002202:	b570      	push	{r4, r5, r6, lr}
  TIMx->CCER &= ~TIM_CCER_CC2E;
 8002204:	f023 0310 	bic.w	r3, r3, #16
 8002208:	6203      	str	r3, [r0, #32]
  tmpccer = TIMx->CCER;
 800220a:	6a03      	ldr	r3, [r0, #32]
  tmpcr2 =  TIMx->CR2;
 800220c:	6844      	ldr	r4, [r0, #4]
  tmpccmrx = TIMx->CCMR1;
 800220e:	6982      	ldr	r2, [r0, #24]
  tmpccmrx |= (OC_Config->OCMode << 8U);
 8002210:	680d      	ldr	r5, [r1, #0]
  tmpccmrx &= ~TIM_CCMR1_CC2S;
 8002212:	f422 42e6 	bic.w	r2, r2, #29440	; 0x7300
  tmpccmrx |= (OC_Config->OCMode << 8U);
 8002216:	ea42 2205 	orr.w	r2, r2, r5, lsl #8
  tmpccer |= (OC_Config->OCPolarity << 4U);
 800221a:	688d      	ldr	r5, [r1, #8]
  tmpccer &= ~TIM_CCER_CC2P;
 800221c:	f023 0320 	bic.w	r3, r3, #32
  tmpccer |= (OC_Config->OCPolarity << 4U);
 8002220:	ea43 1305 	orr.w	r3, r3, r5, lsl #4
  if (IS_TIM_CCXN_INSTANCE(TIMx, TIM_CHANNEL_2))
 8002224:	4d0b      	ldr	r5, [pc, #44]	; (8002254 <TIM_OC2_SetConfig+0x54>)
 8002226:	42a8      	cmp	r0, r5
 8002228:	d10d      	bne.n	8002246 <TIM_OC2_SetConfig+0x46>
    tmpccer |= (OC_Config->OCNPolarity << 4U);
 800222a:	68cd      	ldr	r5, [r1, #12]
    tmpccer &= ~TIM_CCER_CC2NP;
 800222c:	f023 0380 	bic.w	r3, r3, #128	; 0x80
    tmpccer |= (OC_Config->OCNPolarity << 4U);
 8002230:	ea43 1305 	orr.w	r3, r3, r5, lsl #4
    tmpcr2 &= ~TIM_CR2_OIS2N;
 8002234:	f424 6440 	bic.w	r4, r4, #3072	; 0xc00
    tmpcr2 |= (OC_Config->OCNIdleState << 2U);
 8002238:	e9d1 5605 	ldrd	r5, r6, [r1, #20]
 800223c:	4335      	orrs	r5, r6
    tmpccer &= ~TIM_CCER_CC2NE;
 800223e:	f023 0340 	bic.w	r3, r3, #64	; 0x40
    tmpcr2 |= (OC_Config->OCNIdleState << 2U);
 8002242:	ea44 0485 	orr.w	r4, r4, r5, lsl #2
  TIMx->CR2 = tmpcr2;
 8002246:	6044      	str	r4, [r0, #4]
  TIMx->CCMR1 = tmpccmrx;
 8002248:	6182      	str	r2, [r0, #24]
  TIMx->CCR2 = OC_Config->Pulse;
 800224a:	684a      	ldr	r2, [r1, #4]
 800224c:	6382      	str	r2, [r0, #56]	; 0x38
  TIMx->CCER = tmpccer;
 800224e:	6203      	str	r3, [r0, #32]
}
 8002250:	bd70      	pop	{r4, r5, r6, pc}
 8002252:	bf00      	nop
 8002254:	40012c00 	.word	0x40012c00

08002258 <HAL_TIM_PWM_ConfigChannel>:
{
 8002258:	b538      	push	{r3, r4, r5, lr}
  __HAL_LOCK(htim);
 800225a:	f890 303c 	ldrb.w	r3, [r0, #60]	; 0x3c
{
 800225e:	4604      	mov	r4, r0
  __HAL_LOCK(htim);
 8002260:	2b01      	cmp	r3, #1
 8002262:	f04f 0002 	mov.w	r0, #2
 8002266:	d025      	beq.n	80022b4 <HAL_TIM_PWM_ConfigChannel+0x5c>
 8002268:	2301      	movs	r3, #1
  htim->State = HAL_TIM_STATE_BUSY;
 800226a:	f884 003d 	strb.w	r0, [r4, #61]	; 0x3d
  __HAL_LOCK(htim);
 800226e:	f884 303c 	strb.w	r3, [r4, #60]	; 0x3c
  switch (Channel)
 8002272:	2a0c      	cmp	r2, #12
 8002274:	d818      	bhi.n	80022a8 <HAL_TIM_PWM_ConfigChannel+0x50>
 8002276:	e8df f002 	tbb	[pc, r2]
 800227a:	1707      	.short	0x1707
 800227c:	171e1717 	.word	0x171e1717
 8002280:	172f1717 	.word	0x172f1717
 8002284:	1717      	.short	0x1717
 8002286:	40          	.byte	0x40
 8002287:	00          	.byte	0x00
      TIM_OC1_SetConfig(htim->Instance, sConfig);
 8002288:	6820      	ldr	r0, [r4, #0]
 800228a:	f7ff fe0d 	bl	8001ea8 <TIM_OC1_SetConfig>
      htim->Instance->CCMR1 |= TIM_CCMR1_OC1PE;
 800228e:	6823      	ldr	r3, [r4, #0]
      htim->Instance->CCMR1 |= sConfig->OCFastMode;
 8002290:	6909      	ldr	r1, [r1, #16]
      htim->Instance->CCMR1 |= TIM_CCMR1_OC1PE;
 8002292:	699a      	ldr	r2, [r3, #24]
 8002294:	f042 0208 	orr.w	r2, r2, #8
 8002298:	619a      	str	r2, [r3, #24]
      htim->Instance->CCMR1 &= ~TIM_CCMR1_OC1FE;
 800229a:	699a      	ldr	r2, [r3, #24]
 800229c:	f022 0204 	bic.w	r2, r2, #4
 80022a0:	619a      	str	r2, [r3, #24]
      htim->Instance->CCMR1 |= sConfig->OCFastMode;
 80022a2:	699a      	ldr	r2, [r3, #24]
 80022a4:	430a      	orrs	r2, r1
      htim->Instance->CCMR1 |= sConfig->OCFastMode << 8U;
 80022a6:	619a      	str	r2, [r3, #24]
  htim->State = HAL_TIM_STATE_READY;
 80022a8:	2301      	movs	r3, #1
  __HAL_UNLOCK(htim);
 80022aa:	2000      	movs	r0, #0
  htim->State = HAL_TIM_STATE_READY;
 80022ac:	f884 303d 	strb.w	r3, [r4, #61]	; 0x3d
  __HAL_UNLOCK(htim);
 80022b0:	f884 003c 	strb.w	r0, [r4, #60]	; 0x3c
}
 80022b4:	bd38      	pop	{r3, r4, r5, pc}
      TIM_OC2_SetConfig(htim->Instance, sConfig);
 80022b6:	6820      	ldr	r0, [r4, #0]
 80022b8:	f7ff ffa2 	bl	8002200 <TIM_OC2_SetConfig>
      htim->Instance->CCMR1 |= TIM_CCMR1_OC2PE;
 80022bc:	6823      	ldr	r3, [r4, #0]
      htim->Instance->CCMR1 |= sConfig->OCFastMode << 8U;
 80022be:	6909      	ldr	r1, [r1, #16]
      htim->Instance->CCMR1 |= TIM_CCMR1_OC2PE;
 80022c0:	699a      	ldr	r2, [r3, #24]
 80022c2:	f442 6200 	orr.w	r2, r2, #2048	; 0x800
 80022c6:	619a      	str	r2, [r3, #24]
      htim->Instance->CCMR1 &= ~TIM_CCMR1_OC2FE;
 80022c8:	699a      	ldr	r2, [r3, #24]
 80022ca:	f422 6280 	bic.w	r2, r2, #1024	; 0x400
 80022ce:	619a      	str	r2, [r3, #24]
      htim->Instance->CCMR1 |= sConfig->OCFastMode << 8U;
 80022d0:	699a      	ldr	r2, [r3, #24]
 80022d2:	ea42 2201 	orr.w	r2, r2, r1, lsl #8
 80022d6:	e7e6      	b.n	80022a6 <HAL_TIM_PWM_ConfigChannel+0x4e>
      TIM_OC3_SetConfig(htim->Instance, sConfig);
 80022d8:	6820      	ldr	r0, [r4, #0]
 80022da:	f7ff fe0d 	bl	8001ef8 <TIM_OC3_SetConfig>
      htim->Instance->CCMR2 |= TIM_CCMR2_OC3PE;
 80022de:	6823      	ldr	r3, [r4, #0]
      htim->Instance->CCMR2 |= sConfig->OCFastMode;
 80022e0:	6909      	ldr	r1, [r1, #16]
      htim->Instance->CCMR2 |= TIM_CCMR2_OC3PE;
 80022e2:	69da      	ldr	r2, [r3, #28]
 80022e4:	f042 0208 	orr.w	r2, r2, #8
 80022e8:	61da      	str	r2, [r3, #28]
      htim->Instance->CCMR2 &= ~TIM_CCMR2_OC3FE;
 80022ea:	69da      	ldr	r2, [r3, #28]
 80022ec:	f022 0204 	bic.w	r2, r2, #4
 80022f0:	61da      	str	r2, [r3, #28]
      htim->Instance->CCMR2 |= sConfig->OCFastMode;
 80022f2:	69da      	ldr	r2, [r3, #28]
 80022f4:	430a      	orrs	r2, r1
      htim->Instance->CCMR2 |= sConfig->OCFastMode << 8U;
 80022f6:	61da      	str	r2, [r3, #28]
      break;
 80022f8:	e7d6      	b.n	80022a8 <HAL_TIM_PWM_ConfigChannel+0x50>
      TIM_OC4_SetConfig(htim->Instance, sConfig);
 80022fa:	6820      	ldr	r0, [r4, #0]
 80022fc:	f7ff fe26 	bl	8001f4c <TIM_OC4_SetConfig>
      htim->Instance->CCMR2 |= TIM_CCMR2_OC4PE;
 8002300:	6823      	ldr	r3, [r4, #0]
      htim->Instance->CCMR2 |= sConfig->OCFastMode << 8U;
 8002302:	6909      	ldr	r1, [r1, #16]
      htim->Instance->CCMR2 |= TIM_CCMR2_OC4PE;
 8002304:	69da      	ldr	r2, [r3, #28]
 8002306:	f442 6200 	orr.w	r2, r2, #2048	; 0x800
 800230a:	61da      	str	r2, [r3, #28]
      htim->Instance->CCMR2 &= ~TIM_CCMR2_OC4FE;
 800230c:	69da      	ldr	r2, [r3, #28]
 800230e:	f422 6280 	bic.w	r2, r2, #1024	; 0x400
 8002312:	61da      	str	r2, [r3, #28]
      htim->Instance->CCMR2 |= sConfig->OCFastMode << 8U;
 8002314:	69da      	ldr	r2, [r3, #28]
 8002316:	ea42 2201 	orr.w	r2, r2, r1, lsl #8
 800231a:	e7ec      	b.n	80022f6 <HAL_TIM_PWM_ConfigChannel+0x9e>

0800231c <TIM_ETR_SetConfig>:
  *          This parameter must be a value between 0x00 and 0x0F
  * @retval None
  */
void TIM_ETR_SetConfig(TIM_TypeDef *TIMx, uint32_t TIM_ExtTRGPrescaler,
                       uint32_t TIM_ExtTRGPolarity, uint32_t ExtTRGFilter)
{
 800231c:	b510      	push	{r4, lr}
  uint32_t tmpsmcr;

  tmpsmcr = TIMx->SMCR;
 800231e:	6884      	ldr	r4, [r0, #8]

  /* Reset the ETR Bits */
  tmpsmcr &= ~(TIM_SMCR_ETF | TIM_SMCR_ETPS | TIM_SMCR_ECE | TIM_SMCR_ETP);

  /* Set the Prescaler, the Filter value and the Polarity */
  tmpsmcr |= (uint32_t)(TIM_ExtTRGPrescaler | (TIM_ExtTRGPolarity | (ExtTRGFilter << 8U)));
 8002320:	430a      	orrs	r2, r1
  tmpsmcr &= ~(TIM_SMCR_ETF | TIM_SMCR_ETPS | TIM_SMCR_ECE | TIM_SMCR_ETP);
 8002322:	f424 447f 	bic.w	r4, r4, #65280	; 0xff00
  tmpsmcr |= (uint32_t)(TIM_ExtTRGPrescaler | (TIM_ExtTRGPolarity | (ExtTRGFilter << 8U)));
 8002326:	ea42 2303 	orr.w	r3, r2, r3, lsl #8
 800232a:	4323      	orrs	r3, r4

  /* Write to TIMx SMCR */
  TIMx->SMCR = tmpsmcr;
 800232c:	6083      	str	r3, [r0, #8]
}
 800232e:	bd10      	pop	{r4, pc}

08002330 <HAL_TIM_ConfigClockSource>:
  __HAL_LOCK(htim);
 8002330:	f890 303c 	ldrb.w	r3, [r0, #60]	; 0x3c
{
 8002334:	b570      	push	{r4, r5, r6, lr}
  __HAL_LOCK(htim);
 8002336:	2b01      	cmp	r3, #1
{
 8002338:	4604      	mov	r4, r0
 800233a:	f04f 0002 	mov.w	r0, #2
  __HAL_LOCK(htim);
 800233e:	d019      	beq.n	8002374 <HAL_TIM_ConfigClockSource+0x44>
 8002340:	2301      	movs	r3, #1
  htim->State = HAL_TIM_STATE_BUSY;
 8002342:	f884 003d 	strb.w	r0, [r4, #61]	; 0x3d
  tmpsmcr = htim->Instance->SMCR;
 8002346:	6820      	ldr	r0, [r4, #0]
  __HAL_LOCK(htim);
 8002348:	f884 303c 	strb.w	r3, [r4, #60]	; 0x3c
  tmpsmcr = htim->Instance->SMCR;
 800234c:	6883      	ldr	r3, [r0, #8]
  tmpsmcr &= ~(TIM_SMCR_ETF | TIM_SMCR_ETPS | TIM_SMCR_ECE | TIM_SMCR_ETP);
 800234e:	f423 437f 	bic.w	r3, r3, #65280	; 0xff00
 8002352:	f023 0377 	bic.w	r3, r3, #119	; 0x77
  htim->Instance->SMCR = tmpsmcr;
 8002356:	6083      	str	r3, [r0, #8]
  switch (sClockSourceConfig->ClockSource)
 8002358:	680b      	ldr	r3, [r1, #0]
 800235a:	2b40      	cmp	r3, #64	; 0x40
 800235c:	d065      	beq.n	800242a <HAL_TIM_ConfigClockSource+0xfa>
 800235e:	d815      	bhi.n	800238c <HAL_TIM_ConfigClockSource+0x5c>
 8002360:	2b10      	cmp	r3, #16
 8002362:	d00c      	beq.n	800237e <HAL_TIM_ConfigClockSource+0x4e>
 8002364:	d807      	bhi.n	8002376 <HAL_TIM_ConfigClockSource+0x46>
 8002366:	b153      	cbz	r3, 800237e <HAL_TIM_ConfigClockSource+0x4e>
  htim->State = HAL_TIM_STATE_READY;
 8002368:	2301      	movs	r3, #1
  __HAL_UNLOCK(htim);
 800236a:	2000      	movs	r0, #0
  htim->State = HAL_TIM_STATE_READY;
 800236c:	f884 303d 	strb.w	r3, [r4, #61]	; 0x3d
  __HAL_UNLOCK(htim);
 8002370:	f884 003c 	strb.w	r0, [r4, #60]	; 0x3c
}
 8002374:	bd70      	pop	{r4, r5, r6, pc}
  switch (sClockSourceConfig->ClockSource)
 8002376:	2b20      	cmp	r3, #32
 8002378:	d001      	beq.n	800237e <HAL_TIM_ConfigClockSource+0x4e>
 800237a:	2b30      	cmp	r3, #48	; 0x30
 800237c:	d1f4      	bne.n	8002368 <HAL_TIM_ConfigClockSource+0x38>
  tmpsmcr = TIMx->SMCR;
 800237e:	6882      	ldr	r2, [r0, #8]
  tmpsmcr |= (InputTriggerSource | TIM_SLAVEMODE_EXTERNAL1);
 8002380:	f043 0307 	orr.w	r3, r3, #7
  tmpsmcr &= ~TIM_SMCR_TS;
 8002384:	f022 0270 	bic.w	r2, r2, #112	; 0x70
  tmpsmcr |= (InputTriggerSource | TIM_SLAVEMODE_EXTERNAL1);
 8002388:	4313      	orrs	r3, r2
 800238a:	e01a      	b.n	80023c2 <HAL_TIM_ConfigClockSource+0x92>
  switch (sClockSourceConfig->ClockSource)
 800238c:	2b60      	cmp	r3, #96	; 0x60
 800238e:	d034      	beq.n	80023fa <HAL_TIM_ConfigClockSource+0xca>
 8002390:	d819      	bhi.n	80023c6 <HAL_TIM_ConfigClockSource+0x96>
 8002392:	2b50      	cmp	r3, #80	; 0x50
 8002394:	d1e8      	bne.n	8002368 <HAL_TIM_ConfigClockSource+0x38>
      TIM_TI1_ConfigInputStage(htim->Instance,
 8002396:	684a      	ldr	r2, [r1, #4]
 8002398:	68ce      	ldr	r6, [r1, #12]
  tmpccer = TIMx->CCER;
 800239a:	6a01      	ldr	r1, [r0, #32]
  TIMx->CCER &= ~TIM_CCER_CC1E;
 800239c:	6a05      	ldr	r5, [r0, #32]
  tmpccer &= ~(TIM_CCER_CC1P | TIM_CCER_CC1NP);
 800239e:	f021 010a 	bic.w	r1, r1, #10
  TIMx->CCER &= ~TIM_CCER_CC1E;
 80023a2:	f025 0501 	bic.w	r5, r5, #1
 80023a6:	6205      	str	r5, [r0, #32]
  tmpccmr1 = TIMx->CCMR1;
 80023a8:	6983      	ldr	r3, [r0, #24]
  tmpccer |= TIM_ICPolarity;
 80023aa:	430a      	orrs	r2, r1
  tmpccmr1 &= ~TIM_CCMR1_IC1F;
 80023ac:	f023 03f0 	bic.w	r3, r3, #240	; 0xf0
  tmpccmr1 |= (TIM_ICFilter << 4U);
 80023b0:	ea43 1306 	orr.w	r3, r3, r6, lsl #4
  TIMx->CCMR1 = tmpccmr1;
 80023b4:	6183      	str	r3, [r0, #24]
  TIMx->CCER = tmpccer;
 80023b6:	6202      	str	r2, [r0, #32]
  tmpsmcr = TIMx->SMCR;
 80023b8:	6883      	ldr	r3, [r0, #8]
  tmpsmcr &= ~TIM_SMCR_TS;
 80023ba:	f023 0370 	bic.w	r3, r3, #112	; 0x70
  tmpsmcr |= (InputTriggerSource | TIM_SLAVEMODE_EXTERNAL1);
 80023be:	f043 0357 	orr.w	r3, r3, #87	; 0x57
  TIMx->SMCR = tmpsmcr;
 80023c2:	6083      	str	r3, [r0, #8]
 80023c4:	e7d0      	b.n	8002368 <HAL_TIM_ConfigClockSource+0x38>
  switch (sClockSourceConfig->ClockSource)
 80023c6:	2b70      	cmp	r3, #112	; 0x70
 80023c8:	d00c      	beq.n	80023e4 <HAL_TIM_ConfigClockSource+0xb4>
 80023ca:	f5b3 5f00 	cmp.w	r3, #8192	; 0x2000
 80023ce:	d1cb      	bne.n	8002368 <HAL_TIM_ConfigClockSource+0x38>
      TIM_ETR_SetConfig(htim->Instance,
 80023d0:	68cb      	ldr	r3, [r1, #12]
 80023d2:	e9d1 2101 	ldrd	r2, r1, [r1, #4]
 80023d6:	f7ff ffa1 	bl	800231c <TIM_ETR_SetConfig>
      htim->Instance->SMCR |= TIM_SMCR_ECE;
 80023da:	6822      	ldr	r2, [r4, #0]
 80023dc:	6893      	ldr	r3, [r2, #8]
 80023de:	f443 4380 	orr.w	r3, r3, #16384	; 0x4000
 80023e2:	e008      	b.n	80023f6 <HAL_TIM_ConfigClockSource+0xc6>
      TIM_ETR_SetConfig(htim->Instance,
 80023e4:	68cb      	ldr	r3, [r1, #12]
 80023e6:	e9d1 2101 	ldrd	r2, r1, [r1, #4]
 80023ea:	f7ff ff97 	bl	800231c <TIM_ETR_SetConfig>
      tmpsmcr = htim->Instance->SMCR;
 80023ee:	6822      	ldr	r2, [r4, #0]
 80023f0:	6893      	ldr	r3, [r2, #8]
      tmpsmcr |= (TIM_SLAVEMODE_EXTERNAL1 | TIM_CLOCKSOURCE_ETRMODE1);
 80023f2:	f043 0377 	orr.w	r3, r3, #119	; 0x77
      htim->Instance->SMCR |= TIM_SMCR_ECE;
 80023f6:	6093      	str	r3, [r2, #8]
      break;
 80023f8:	e7b6      	b.n	8002368 <HAL_TIM_ConfigClockSource+0x38>
      TIM_TI2_ConfigInputStage(htim->Instance,
 80023fa:	684d      	ldr	r5, [r1, #4]
 80023fc:	68ce      	ldr	r6, [r1, #12]
  TIMx->CCER &= ~TIM_CCER_CC2E;
 80023fe:	6a01      	ldr	r1, [r0, #32]
 8002400:	f021 0110 	bic.w	r1, r1, #16
 8002404:	6201      	str	r1, [r0, #32]
  tmpccmr1 = TIMx->CCMR1;
 8002406:	6982      	ldr	r2, [r0, #24]
  tmpccer = TIMx->CCER;
 8002408:	6a03      	ldr	r3, [r0, #32]
  tmpccmr1 &= ~TIM_CCMR1_IC2F;
 800240a:	f422 4270 	bic.w	r2, r2, #61440	; 0xf000
  tmpccer &= ~(TIM_CCER_CC2P | TIM_CCER_CC2NP);
 800240e:	f023 03a0 	bic.w	r3, r3, #160	; 0xa0
  tmpccer |= (TIM_ICPolarity << 4U);
 8002412:	ea43 1305 	orr.w	r3, r3, r5, lsl #4
  tmpccmr1 |= (TIM_ICFilter << 12U);
 8002416:	ea42 3206 	orr.w	r2, r2, r6, lsl #12
  TIMx->CCMR1 = tmpccmr1 ;
 800241a:	6182      	str	r2, [r0, #24]
  TIMx->CCER = tmpccer;
 800241c:	6203      	str	r3, [r0, #32]
  tmpsmcr = TIMx->SMCR;
 800241e:	6883      	ldr	r3, [r0, #8]
  tmpsmcr &= ~TIM_SMCR_TS;
 8002420:	f023 0370 	bic.w	r3, r3, #112	; 0x70
  tmpsmcr |= (InputTriggerSource | TIM_SLAVEMODE_EXTERNAL1);
 8002424:	f043 0367 	orr.w	r3, r3, #103	; 0x67
 8002428:	e7cb      	b.n	80023c2 <HAL_TIM_ConfigClockSource+0x92>
      TIM_TI1_ConfigInputStage(htim->Instance,
 800242a:	684a      	ldr	r2, [r1, #4]
 800242c:	68ce      	ldr	r6, [r1, #12]
  tmpccer = TIMx->CCER;
 800242e:	6a01      	ldr	r1, [r0, #32]
  TIMx->CCER &= ~TIM_CCER_CC1E;
 8002430:	6a05      	ldr	r5, [r0, #32]
  tmpccer &= ~(TIM_CCER_CC1P | TIM_CCER_CC1NP);
 8002432:	f021 010a 	bic.w	r1, r1, #10
  TIMx->CCER &= ~TIM_CCER_CC1E;
 8002436:	f025 0501 	bic.w	r5, r5, #1
 800243a:	6205      	str	r5, [r0, #32]
  tmpccmr1 = TIMx->CCMR1;
 800243c:	6983      	ldr	r3, [r0, #24]
  tmpccer |= TIM_ICPolarity;
 800243e:	430a      	orrs	r2, r1
  tmpccmr1 &= ~TIM_CCMR1_IC1F;
 8002440:	f023 03f0 	bic.w	r3, r3, #240	; 0xf0
  tmpccmr1 |= (TIM_ICFilter << 4U);
 8002444:	ea43 1306 	orr.w	r3, r3, r6, lsl #4
  TIMx->CCMR1 = tmpccmr1;
 8002448:	6183      	str	r3, [r0, #24]
  TIMx->CCER = tmpccer;
 800244a:	6202      	str	r2, [r0, #32]
  tmpsmcr = TIMx->SMCR;
 800244c:	6883      	ldr	r3, [r0, #8]
  tmpsmcr &= ~TIM_SMCR_TS;
 800244e:	f023 0370 	bic.w	r3, r3, #112	; 0x70
  tmpsmcr |= (InputTriggerSource | TIM_SLAVEMODE_EXTERNAL1);
 8002452:	f043 0347 	orr.w	r3, r3, #71	; 0x47
 8002456:	e7b4      	b.n	80023c2 <HAL_TIM_ConfigClockSource+0x92>

08002458 <TIM_CCxChannelCmd>:
  * @param  ChannelState specifies the TIM Channel CCxE bit new state.
  *          This parameter can be: TIM_CCx_ENABLE or TIM_CCx_DISABLE.
  * @retval None
  */
void TIM_CCxChannelCmd(TIM_TypeDef *TIMx, uint32_t Channel, uint32_t ChannelState)
{
 8002458:	b510      	push	{r4, lr}

  /* Check the parameters */
  assert_param(IS_TIM_CC1_INSTANCE(TIMx));
  assert_param(IS_TIM_CHANNELS(Channel));

  tmp = TIM_CCER_CC1E << (Channel & 0x1FU); /* 0x1FU = 31 bits max shift */
 800245a:	2401      	movs	r4, #1

  /* Reset the CCxE Bit */
  TIMx->CCER &= ~tmp;
 800245c:	6a03      	ldr	r3, [r0, #32]
  tmp = TIM_CCER_CC1E << (Channel & 0x1FU); /* 0x1FU = 31 bits max shift */
 800245e:	f001 011f 	and.w	r1, r1, #31
 8002462:	408c      	lsls	r4, r1
  TIMx->CCER &= ~tmp;
 8002464:	ea23 0304 	bic.w	r3, r3, r4
 8002468:	6203      	str	r3, [r0, #32]

  /* Set or reset the CCxE Bit */
  TIMx->CCER |= (uint32_t)(ChannelState << (Channel & 0x1FU)); /* 0x1FU = 31 bits max shift */
 800246a:	6a03      	ldr	r3, [r0, #32]
 800246c:	408a      	lsls	r2, r1
 800246e:	431a      	orrs	r2, r3
 8002470:	6202      	str	r2, [r0, #32]
}
 8002472:	bd10      	pop	{r4, pc}

08002474 <HAL_TIM_OC_Start>:
{
 8002474:	b510      	push	{r4, lr}
 8002476:	4604      	mov	r4, r0
  TIM_CCxChannelCmd(htim->Instance, Channel, TIM_CCx_ENABLE);
 8002478:	2201      	movs	r2, #1
 800247a:	6800      	ldr	r0, [r0, #0]
 800247c:	f7ff ffec 	bl	8002458 <TIM_CCxChannelCmd>
  if (IS_TIM_BREAK_INSTANCE(htim->Instance) != RESET)
 8002480:	6823      	ldr	r3, [r4, #0]
 8002482:	4a09      	ldr	r2, [pc, #36]	; (80024a8 <HAL_TIM_OC_Start+0x34>)
}
 8002484:	2000      	movs	r0, #0
  if (IS_TIM_BREAK_INSTANCE(htim->Instance) != RESET)
 8002486:	4293      	cmp	r3, r2
    __HAL_TIM_MOE_ENABLE(htim);
 8002488:	bf02      	ittt	eq
 800248a:	6c5a      	ldreq	r2, [r3, #68]	; 0x44
 800248c:	f442 4200 	orreq.w	r2, r2, #32768	; 0x8000
 8002490:	645a      	streq	r2, [r3, #68]	; 0x44
  tmpsmcr = htim->Instance->SMCR & TIM_SMCR_SMS;
 8002492:	689a      	ldr	r2, [r3, #8]
 8002494:	f002 0207 	and.w	r2, r2, #7
  if (!IS_TIM_SLAVEMODE_TRIGGER_ENABLED(tmpsmcr))
 8002498:	2a06      	cmp	r2, #6
    __HAL_TIM_ENABLE(htim);
 800249a:	bf1e      	ittt	ne
 800249c:	681a      	ldrne	r2, [r3, #0]
 800249e:	f042 0201 	orrne.w	r2, r2, #1
 80024a2:	601a      	strne	r2, [r3, #0]
}
 80024a4:	bd10      	pop	{r4, pc}
 80024a6:	bf00      	nop
 80024a8:	40012c00 	.word	0x40012c00

080024ac <HAL_TIM_PWM_Start>:
 80024ac:	f7ff bfe2 	b.w	8002474 <HAL_TIM_OC_Start>

080024b0 <HAL_TIMEx_MasterConfigSynchronization>:
  assert_param(IS_TIM_SYNCHRO_INSTANCE(htim->Instance));
  assert_param(IS_TIM_TRGO_SOURCE(sMasterConfig->MasterOutputTrigger));
  assert_param(IS_TIM_MSM_STATE(sMasterConfig->MasterSlaveMode));

  /* Check input state */
  __HAL_LOCK(htim);
 80024b0:	f890 303c 	ldrb.w	r3, [r0, #60]	; 0x3c
{
 80024b4:	b530      	push	{r4, r5, lr}
  __HAL_LOCK(htim);
 80024b6:	2b01      	cmp	r3, #1
 80024b8:	f04f 0302 	mov.w	r3, #2
 80024bc:	d014      	beq.n	80024e8 <HAL_TIMEx_MasterConfigSynchronization+0x38>

  /* Change the handler state */
  htim->State = HAL_TIM_STATE_BUSY;

  /* Get the TIMx CR2 register value */
  tmpcr2 = htim->Instance->CR2;
 80024be:	6804      	ldr	r4, [r0, #0]
  htim->State = HAL_TIM_STATE_BUSY;
 80024c0:	f880 303d 	strb.w	r3, [r0, #61]	; 0x3d
  tmpcr2 = htim->Instance->CR2;
 80024c4:	6862      	ldr	r2, [r4, #4]

  /* Get the TIMx SMCR register value */
  tmpsmcr = htim->Instance->SMCR;
 80024c6:	68a3      	ldr	r3, [r4, #8]

  /* Reset the MMS Bits */
  tmpcr2 &= ~TIM_CR2_MMS;
  /* Select the TRGO source */
  tmpcr2 |=  sMasterConfig->MasterOutputTrigger;
 80024c8:	680d      	ldr	r5, [r1, #0]

  /* Reset the MSM Bit */
  tmpsmcr &= ~TIM_SMCR_MSM;
  /* Set master mode */
  tmpsmcr |= sMasterConfig->MasterSlaveMode;
 80024ca:	6849      	ldr	r1, [r1, #4]
  tmpcr2 &= ~TIM_CR2_MMS;
 80024cc:	f022 0270 	bic.w	r2, r2, #112	; 0x70
  tmpsmcr &= ~TIM_SMCR_MSM;
 80024d0:	f023 0380 	bic.w	r3, r3, #128	; 0x80
  tmpsmcr |= sMasterConfig->MasterSlaveMode;
 80024d4:	430b      	orrs	r3, r1
  tmpcr2 |=  sMasterConfig->MasterOutputTrigger;
 80024d6:	432a      	orrs	r2, r5

  /* Update TIMx CR2 */
  htim->Instance->CR2 = tmpcr2;
 80024d8:	6062      	str	r2, [r4, #4]

  /* Update TIMx SMCR */
  htim->Instance->SMCR = tmpsmcr;
 80024da:	60a3      	str	r3, [r4, #8]

  /* Change the htim state */
  htim->State = HAL_TIM_STATE_READY;
 80024dc:	2301      	movs	r3, #1
 80024de:	f880 303d 	strb.w	r3, [r0, #61]	; 0x3d

  __HAL_UNLOCK(htim);
 80024e2:	2300      	movs	r3, #0
 80024e4:	f880 303c 	strb.w	r3, [r0, #60]	; 0x3c
  __HAL_LOCK(htim);
 80024e8:	4618      	mov	r0, r3

  return HAL_OK;
}
 80024ea:	bd30      	pop	{r4, r5, pc}

080024ec <HAL_TIMEx_CommutCallback>:
 80024ec:	4770      	bx	lr

080024ee <HAL_TIMEx_BreakCallback>:
 80024ee:	4770      	bx	lr

080024f0 <calloc>:
 80024f0:	4b02      	ldr	r3, [pc, #8]	; (80024fc <calloc+0xc>)
 80024f2:	460a      	mov	r2, r1
 80024f4:	4601      	mov	r1, r0
 80024f6:	6818      	ldr	r0, [r3, #0]
 80024f8:	f000 b844 	b.w	8002584 <_calloc_r>
 80024fc:	20000010 	.word	0x20000010

08002500 <__errno>:
 8002500:	4b01      	ldr	r3, [pc, #4]	; (8002508 <__errno+0x8>)
 8002502:	6818      	ldr	r0, [r3, #0]
 8002504:	4770      	bx	lr
 8002506:	bf00      	nop
 8002508:	20000010 	.word	0x20000010

0800250c <__libc_init_array>:
 800250c:	b570      	push	{r4, r5, r6, lr}
 800250e:	2500      	movs	r5, #0
 8002510:	4e0c      	ldr	r6, [pc, #48]	; (8002544 <__libc_init_array+0x38>)
 8002512:	4c0d      	ldr	r4, [pc, #52]	; (8002548 <__libc_init_array+0x3c>)
 8002514:	1ba4      	subs	r4, r4, r6
 8002516:	10a4      	asrs	r4, r4, #2
 8002518:	42a5      	cmp	r5, r4
 800251a:	d109      	bne.n	8002530 <__libc_init_array+0x24>
 800251c:	f000 f92c 	bl	8002778 <_init>
 8002520:	2500      	movs	r5, #0
 8002522:	4e0a      	ldr	r6, [pc, #40]	; (800254c <__libc_init_array+0x40>)
 8002524:	4c0a      	ldr	r4, [pc, #40]	; (8002550 <__libc_init_array+0x44>)
 8002526:	1ba4      	subs	r4, r4, r6
 8002528:	10a4      	asrs	r4, r4, #2
 800252a:	42a5      	cmp	r5, r4
 800252c:	d105      	bne.n	800253a <__libc_init_array+0x2e>
 800252e:	bd70      	pop	{r4, r5, r6, pc}
 8002530:	f856 3025 	ldr.w	r3, [r6, r5, lsl #2]
 8002534:	4798      	blx	r3
 8002536:	3501      	adds	r5, #1
 8002538:	e7ee      	b.n	8002518 <__libc_init_array+0xc>
 800253a:	f856 3025 	ldr.w	r3, [r6, r5, lsl #2]
 800253e:	4798      	blx	r3
 8002540:	3501      	adds	r5, #1
 8002542:	e7f2      	b.n	800252a <__libc_init_array+0x1e>
 8002544:	0800cfe8 	.word	0x0800cfe8
 8002548:	0800cfe8 	.word	0x0800cfe8
 800254c:	0800cfe8 	.word	0x0800cfe8
 8002550:	0800cfec 	.word	0x0800cfec

08002554 <malloc>:
 8002554:	4b02      	ldr	r3, [pc, #8]	; (8002560 <malloc+0xc>)
 8002556:	4601      	mov	r1, r0
 8002558:	6818      	ldr	r0, [r3, #0]
 800255a:	f000 b86d 	b.w	8002638 <_malloc_r>
 800255e:	bf00      	nop
 8002560:	20000010 	.word	0x20000010

08002564 <free>:
 8002564:	4b02      	ldr	r3, [pc, #8]	; (8002570 <free+0xc>)
 8002566:	4601      	mov	r1, r0
 8002568:	6818      	ldr	r0, [r3, #0]
 800256a:	f000 b819 	b.w	80025a0 <_free_r>
 800256e:	bf00      	nop
 8002570:	20000010 	.word	0x20000010

08002574 <memset>:
 8002574:	4603      	mov	r3, r0
 8002576:	4402      	add	r2, r0
 8002578:	4293      	cmp	r3, r2
 800257a:	d100      	bne.n	800257e <memset+0xa>
 800257c:	4770      	bx	lr
 800257e:	f803 1b01 	strb.w	r1, [r3], #1
 8002582:	e7f9      	b.n	8002578 <memset+0x4>

08002584 <_calloc_r>:
 8002584:	b538      	push	{r3, r4, r5, lr}
 8002586:	fb02 f401 	mul.w	r4, r2, r1
 800258a:	4621      	mov	r1, r4
 800258c:	f000 f854 	bl	8002638 <_malloc_r>
 8002590:	4605      	mov	r5, r0
 8002592:	b118      	cbz	r0, 800259c <_calloc_r+0x18>
 8002594:	4622      	mov	r2, r4
 8002596:	2100      	movs	r1, #0
 8002598:	f7ff ffec 	bl	8002574 <memset>
 800259c:	4628      	mov	r0, r5
 800259e:	bd38      	pop	{r3, r4, r5, pc}

080025a0 <_free_r>:
 80025a0:	b538      	push	{r3, r4, r5, lr}
 80025a2:	4605      	mov	r5, r0
 80025a4:	2900      	cmp	r1, #0
 80025a6:	d043      	beq.n	8002630 <_free_r+0x90>
 80025a8:	f851 3c04 	ldr.w	r3, [r1, #-4]
 80025ac:	1f0c      	subs	r4, r1, #4
 80025ae:	2b00      	cmp	r3, #0
 80025b0:	bfb8      	it	lt
 80025b2:	18e4      	addlt	r4, r4, r3
 80025b4:	f000 f8de 	bl	8002774 <__malloc_lock>
 80025b8:	4a1e      	ldr	r2, [pc, #120]	; (8002634 <_free_r+0x94>)
 80025ba:	6813      	ldr	r3, [r2, #0]
 80025bc:	4610      	mov	r0, r2
 80025be:	b933      	cbnz	r3, 80025ce <_free_r+0x2e>
 80025c0:	6063      	str	r3, [r4, #4]
 80025c2:	6014      	str	r4, [r2, #0]
 80025c4:	4628      	mov	r0, r5
 80025c6:	e8bd 4038 	ldmia.w	sp!, {r3, r4, r5, lr}
 80025ca:	f000 b8d4 	b.w	8002776 <__malloc_unlock>
 80025ce:	42a3      	cmp	r3, r4
 80025d0:	d90b      	bls.n	80025ea <_free_r+0x4a>
 80025d2:	6821      	ldr	r1, [r4, #0]
 80025d4:	1862      	adds	r2, r4, r1
 80025d6:	4293      	cmp	r3, r2
 80025d8:	bf01      	itttt	eq
 80025da:	681a      	ldreq	r2, [r3, #0]
 80025dc:	685b      	ldreq	r3, [r3, #4]
 80025de:	1852      	addeq	r2, r2, r1
 80025e0:	6022      	streq	r2, [r4, #0]
 80025e2:	6063      	str	r3, [r4, #4]
 80025e4:	6004      	str	r4, [r0, #0]
 80025e6:	e7ed      	b.n	80025c4 <_free_r+0x24>
 80025e8:	4613      	mov	r3, r2
 80025ea:	685a      	ldr	r2, [r3, #4]
 80025ec:	b10a      	cbz	r2, 80025f2 <_free_r+0x52>
 80025ee:	42a2      	cmp	r2, r4
 80025f0:	d9fa      	bls.n	80025e8 <_free_r+0x48>
 80025f2:	6819      	ldr	r1, [r3, #0]
 80025f4:	1858      	adds	r0, r3, r1
 80025f6:	42a0      	cmp	r0, r4
 80025f8:	d10b      	bne.n	8002612 <_free_r+0x72>
 80025fa:	6820      	ldr	r0, [r4, #0]
 80025fc:	4401      	add	r1, r0
 80025fe:	1858      	adds	r0, r3, r1
 8002600:	4282      	cmp	r2, r0
 8002602:	6019      	str	r1, [r3, #0]
 8002604:	d1de      	bne.n	80025c4 <_free_r+0x24>
 8002606:	6810      	ldr	r0, [r2, #0]
 8002608:	6852      	ldr	r2, [r2, #4]
 800260a:	4401      	add	r1, r0
 800260c:	6019      	str	r1, [r3, #0]
 800260e:	605a      	str	r2, [r3, #4]
 8002610:	e7d8      	b.n	80025c4 <_free_r+0x24>
 8002612:	d902      	bls.n	800261a <_free_r+0x7a>
 8002614:	230c      	movs	r3, #12
 8002616:	602b      	str	r3, [r5, #0]
 8002618:	e7d4      	b.n	80025c4 <_free_r+0x24>
 800261a:	6820      	ldr	r0, [r4, #0]
 800261c:	1821      	adds	r1, r4, r0
 800261e:	428a      	cmp	r2, r1
 8002620:	bf01      	itttt	eq
 8002622:	6811      	ldreq	r1, [r2, #0]
 8002624:	6852      	ldreq	r2, [r2, #4]
 8002626:	1809      	addeq	r1, r1, r0
 8002628:	6021      	streq	r1, [r4, #0]
 800262a:	6062      	str	r2, [r4, #4]
 800262c:	605c      	str	r4, [r3, #4]
 800262e:	e7c9      	b.n	80025c4 <_free_r+0x24>
 8002630:	bd38      	pop	{r3, r4, r5, pc}
 8002632:	bf00      	nop
 8002634:	2000009c 	.word	0x2000009c

08002638 <_malloc_r>:
 8002638:	b570      	push	{r4, r5, r6, lr}
 800263a:	1ccd      	adds	r5, r1, #3
 800263c:	f025 0503 	bic.w	r5, r5, #3
 8002640:	3508      	adds	r5, #8
 8002642:	2d0c      	cmp	r5, #12
 8002644:	bf38      	it	cc
 8002646:	250c      	movcc	r5, #12
 8002648:	2d00      	cmp	r5, #0
 800264a:	4606      	mov	r6, r0
 800264c:	db01      	blt.n	8002652 <_malloc_r+0x1a>
 800264e:	42a9      	cmp	r1, r5
 8002650:	d903      	bls.n	800265a <_malloc_r+0x22>
 8002652:	230c      	movs	r3, #12
 8002654:	6033      	str	r3, [r6, #0]
 8002656:	2000      	movs	r0, #0
 8002658:	bd70      	pop	{r4, r5, r6, pc}
 800265a:	f000 f88b 	bl	8002774 <__malloc_lock>
 800265e:	4a21      	ldr	r2, [pc, #132]	; (80026e4 <_malloc_r+0xac>)
 8002660:	6814      	ldr	r4, [r2, #0]
 8002662:	4621      	mov	r1, r4
 8002664:	b991      	cbnz	r1, 800268c <_malloc_r+0x54>
 8002666:	4c20      	ldr	r4, [pc, #128]	; (80026e8 <_malloc_r+0xb0>)
 8002668:	6823      	ldr	r3, [r4, #0]
 800266a:	b91b      	cbnz	r3, 8002674 <_malloc_r+0x3c>
 800266c:	4630      	mov	r0, r6
 800266e:	f000 f871 	bl	8002754 <_sbrk_r>
 8002672:	6020      	str	r0, [r4, #0]
 8002674:	4629      	mov	r1, r5
 8002676:	4630      	mov	r0, r6
 8002678:	f000 f86c 	bl	8002754 <_sbrk_r>
 800267c:	1c43      	adds	r3, r0, #1
 800267e:	d124      	bne.n	80026ca <_malloc_r+0x92>
 8002680:	230c      	movs	r3, #12
 8002682:	4630      	mov	r0, r6
 8002684:	6033      	str	r3, [r6, #0]
 8002686:	f000 f876 	bl	8002776 <__malloc_unlock>
 800268a:	e7e4      	b.n	8002656 <_malloc_r+0x1e>
 800268c:	680b      	ldr	r3, [r1, #0]
 800268e:	1b5b      	subs	r3, r3, r5
 8002690:	d418      	bmi.n	80026c4 <_malloc_r+0x8c>
 8002692:	2b0b      	cmp	r3, #11
 8002694:	d90f      	bls.n	80026b6 <_malloc_r+0x7e>
 8002696:	600b      	str	r3, [r1, #0]
 8002698:	18cc      	adds	r4, r1, r3
 800269a:	50cd      	str	r5, [r1, r3]
 800269c:	4630      	mov	r0, r6
 800269e:	f000 f86a 	bl	8002776 <__malloc_unlock>
 80026a2:	f104 000b 	add.w	r0, r4, #11
 80026a6:	1d23      	adds	r3, r4, #4
 80026a8:	f020 0007 	bic.w	r0, r0, #7
 80026ac:	1ac3      	subs	r3, r0, r3
 80026ae:	d0d3      	beq.n	8002658 <_malloc_r+0x20>
 80026b0:	425a      	negs	r2, r3
 80026b2:	50e2      	str	r2, [r4, r3]
 80026b4:	e7d0      	b.n	8002658 <_malloc_r+0x20>
 80026b6:	684b      	ldr	r3, [r1, #4]
 80026b8:	428c      	cmp	r4, r1
 80026ba:	bf16      	itet	ne
 80026bc:	6063      	strne	r3, [r4, #4]
 80026be:	6013      	streq	r3, [r2, #0]
 80026c0:	460c      	movne	r4, r1
 80026c2:	e7eb      	b.n	800269c <_malloc_r+0x64>
 80026c4:	460c      	mov	r4, r1
 80026c6:	6849      	ldr	r1, [r1, #4]
 80026c8:	e7cc      	b.n	8002664 <_malloc_r+0x2c>
 80026ca:	1cc4      	adds	r4, r0, #3
 80026cc:	f024 0403 	bic.w	r4, r4, #3
 80026d0:	42a0      	cmp	r0, r4
 80026d2:	d005      	beq.n	80026e0 <_malloc_r+0xa8>
 80026d4:	1a21      	subs	r1, r4, r0
 80026d6:	4630      	mov	r0, r6
 80026d8:	f000 f83c 	bl	8002754 <_sbrk_r>
 80026dc:	3001      	adds	r0, #1
 80026de:	d0cf      	beq.n	8002680 <_malloc_r+0x48>
 80026e0:	6025      	str	r5, [r4, #0]
 80026e2:	e7db      	b.n	800269c <_malloc_r+0x64>
 80026e4:	2000009c 	.word	0x2000009c
 80026e8:	200000a0 	.word	0x200000a0

080026ec <rand>:
 80026ec:	b538      	push	{r3, r4, r5, lr}
 80026ee:	4b13      	ldr	r3, [pc, #76]	; (800273c <rand+0x50>)
 80026f0:	681c      	ldr	r4, [r3, #0]
 80026f2:	6ba3      	ldr	r3, [r4, #56]	; 0x38
 80026f4:	b97b      	cbnz	r3, 8002716 <rand+0x2a>
 80026f6:	2018      	movs	r0, #24
 80026f8:	f7ff ff2c 	bl	8002554 <malloc>
 80026fc:	4a10      	ldr	r2, [pc, #64]	; (8002740 <rand+0x54>)
 80026fe:	4b11      	ldr	r3, [pc, #68]	; (8002744 <rand+0x58>)
 8002700:	63a0      	str	r0, [r4, #56]	; 0x38
 8002702:	e9c0 2300 	strd	r2, r3, [r0]
 8002706:	4b10      	ldr	r3, [pc, #64]	; (8002748 <rand+0x5c>)
 8002708:	2201      	movs	r2, #1
 800270a:	6083      	str	r3, [r0, #8]
 800270c:	230b      	movs	r3, #11
 800270e:	8183      	strh	r3, [r0, #12]
 8002710:	2300      	movs	r3, #0
 8002712:	e9c0 2304 	strd	r2, r3, [r0, #16]
 8002716:	6ba1      	ldr	r1, [r4, #56]	; 0x38
 8002718:	480c      	ldr	r0, [pc, #48]	; (800274c <rand+0x60>)
 800271a:	690a      	ldr	r2, [r1, #16]
 800271c:	694b      	ldr	r3, [r1, #20]
 800271e:	4350      	muls	r0, r2
 8002720:	4c0b      	ldr	r4, [pc, #44]	; (8002750 <rand+0x64>)
 8002722:	fb04 0003 	mla	r0, r4, r3, r0
 8002726:	fba2 2304 	umull	r2, r3, r2, r4
 800272a:	4403      	add	r3, r0
 800272c:	1c54      	adds	r4, r2, #1
 800272e:	f143 0500 	adc.w	r5, r3, #0
 8002732:	e9c1 4504 	strd	r4, r5, [r1, #16]
 8002736:	f025 4000 	bic.w	r0, r5, #2147483648	; 0x80000000
 800273a:	bd38      	pop	{r3, r4, r5, pc}
 800273c:	20000010 	.word	0x20000010
 8002740:	abcd330e 	.word	0xabcd330e
 8002744:	e66d1234 	.word	0xe66d1234
 8002748:	0005deec 	.word	0x0005deec
 800274c:	5851f42d 	.word	0x5851f42d
 8002750:	4c957f2d 	.word	0x4c957f2d

08002754 <_sbrk_r>:
 8002754:	b538      	push	{r3, r4, r5, lr}
 8002756:	2300      	movs	r3, #0
 8002758:	4c05      	ldr	r4, [pc, #20]	; (8002770 <_sbrk_r+0x1c>)
 800275a:	4605      	mov	r5, r0
 800275c:	4608      	mov	r0, r1
 800275e:	6023      	str	r3, [r4, #0]
 8002760:	f7fe fd0e 	bl	8001180 <_sbrk>
 8002764:	1c43      	adds	r3, r0, #1
 8002766:	d102      	bne.n	800276e <_sbrk_r+0x1a>
 8002768:	6823      	ldr	r3, [r4, #0]
 800276a:	b103      	cbz	r3, 800276e <_sbrk_r+0x1a>
 800276c:	602b      	str	r3, [r5, #0]
 800276e:	bd38      	pop	{r3, r4, r5, pc}
 8002770:	20000504 	.word	0x20000504

08002774 <__malloc_lock>:
 8002774:	4770      	bx	lr

08002776 <__malloc_unlock>:
 8002776:	4770      	bx	lr

08002778 <_init>:
 8002778:	b5f8      	push	{r3, r4, r5, r6, r7, lr}
 800277a:	bf00      	nop
 800277c:	bcf8      	pop	{r3, r4, r5, r6, r7}
 800277e:	bc08      	pop	{r3}
 8002780:	469e      	mov	lr, r3
 8002782:	4770      	bx	lr

08002784 <_fini>:
 8002784:	b5f8      	push	{r3, r4, r5, r6, r7, lr}
 8002786:	bf00      	nop
 8002788:	bcf8      	pop	{r3, r4, r5, r6, r7}
 800278a:	bc08      	pop	{r3}
 800278c:	469e      	mov	lr, r3
 800278e:	4770      	bx	lr
